(lp0
(lp1
F43.92685204350072
aF44.63204095622314
aF36.68210827421235
aF34.73436705484322
aF39.5523460362579
aF33.99118972893073
aF39.97891888083129
aF41.78137055555305
aF30.53759354312183
aF36.68210827421235
aF39.69352192790213
aF38.06319473062353
aF45.36024107983404
aF45.73332521808363
aF56.690843765102194
aF55.836909957442025
aF54.46945488813873
aF45.73332521808363
aF36.56150834616634
aF39.5523460362579
aF36.925710809672886
aF30.876746012090063
aF43.243600571776106
aF50.51098365034002
aF48.31641493268267
aF51.684764523367335
aF40.12316191592259
aF34.95270986373049
aF39.412170811543376
aF37.172570459775194
aF36.32267193095456
aF56.11868173569717
aF34.84319640460254
aF37.04872942621957
aF38.45809085237561
aF36.56150834616634
aF38.99754386604742
aF41.78137055555305
aF38.99754386604742
aF34.518735201618064
aF37.172570459775194
aF38.59155007780303
aF38.72593880282878
aF40.860276686522376
aF39.69352192790213
aF38.72593880282878
aF37.42275298858945
aF35.285420016778595
aF36.56150834616634
aF43.076095932966545
aF45.9221782299239
aF36.08693564067917
aF38.06319473062353
aF38.06319473062353
aF38.06319473062353
aF38.06319473062353
aF35.17381507548624
aF49.17095412347522
aF38.72593880282878
aF38.06319473062353
aF36.08693564067917
aF37.54911136952685
aF37.42275298858945
aF40.12316191592259
aF35.285420016778595
aF36.56150834616634
aF37.04872942621957
aF37.54911136952685
aF38.06319473062353
aF38.99754386604742
aF48.95449799175572
aF43.076095932966545
aF38.59155007780303
aF37.93335871165452
aF37.54911136952685
aF37.172570459775194
aF36.441698813357824
aF36.32267193095456
aF41.46975950501859
aF37.54911136952685
aF36.925710809672886
aF37.67632594262979
aF37.67632594262979
aF36.204420054980474
aF38.45809085237561
aF38.06319473062353
aF40.710694982786876
aF38.59155007780303
aF38.06319473062353
aF38.06319473062353
aF37.42275298858945
aF37.29724218516278
aF35.397735447391106
aF39.97891888083129
aF36.68210827421235
aF36.56150834616634
aF37.172570459775194
aF37.29724218516278
aF37.42275298858945
aF36.08693564067917
aF38.59155007780303
aF40.710694982786876
aF40.26844957119621
aF36.56150834616634
aF38.06319473062353
aF37.54911136952685
aF37.42275298858945
aF37.04872942621957
aF36.56150834616634
aF35.62452508876756
aF49.17095412347522
aF48.31641493268267
aF38.06319473062353
aF36.925710809672886
aF37.04872942621957
aF37.54911136952685
aF37.93335871165452
aF38.59155007780303
aF38.72593880282878
aF38.19392259197235
aF51.926097618829715
aF36.08693564067917
aF38.59155007780303
aF38.59155007780303
aF37.93335871165452
aF38.06319473062353
aF37.54911136952685
aF36.925710809672886
aF37.172570459775194
aF38.72593880282878
aF36.56150834616634
aF36.56150834616634
aF37.04872942621957
aF37.04872942621957
aF37.42275298858945
aF37.54911136952685
aF38.06319473062353
aF38.45809085237561
aF39.13478010554484
aF48.527253019240405
aF43.75402299935947
aF39.5523460362579
aF38.59155007780303
aF38.59155007780303
aF38.06319473062353
aF37.67632594262979
aF35.739013175062894
aF36.925710809672886
aF36.56150834616634
aF35.739013175062894
aF46.69344937681493
aF37.67632594262979
aF37.172570459775194
aF37.29724218516278
aF35.739013175062894
aF37.93335871165452
aF38.06319473062353
aF38.59155007780303
aF38.99754386604742
aF38.99754386604742
aF42.58127855489816
aF48.10740099219773
aF39.13478010554484
aF38.861266771874554
aF39.13478010554484
aF38.72593880282878
aF38.19392259197235
aF35.62452508876756
aF35.739013175062894
aF37.04872942621957
aF37.42275298858945
aF39.5523460362579
aF48.95449799175572
aF36.204420054980474
aF37.172570459775194
aF37.172570459775194
aF37.54911136952685
aF38.19392259197235
aF38.19392259197235
aF38.32555151645486
aF39.13478010554484
aF37.54911136952685
aF41.16276211895311
aF40.710694982786876
aF39.5523460362579
aF38.861266771874554
aF38.99754386604742
aF38.06319473062353
aF37.67632594262979
aF39.13478010554484
aF37.67632594262979
aF37.67632594262979
aF36.925710809672886
aF36.56150834616634
aF48.95449799175572
aF38.45809085237561
aF37.54911136952685
aF37.54911136952685
aF37.54911136952685
aF37.54911136952685
aF39.69352192790213
aF38.59155007780303
aF38.861266771874554
aF39.835709240029864
aF37.54911136952685
aF39.13478010554484
aF40.860276686522376
aF39.97891888083129
aF39.5523460362579
aF39.5523460362579
aF38.99754386604742
aF43.75402299935947
aF38.99754386604742
aF37.54911136952685
aF37.67632594262979
aF37.67632594262979
aF39.412170811543376
aF35.397735447391106
aF35.739013175062894
aF37.42275298858945
aF38.45809085237561
aF47.28912127557156
aF37.04872942621957
aF38.45809085237561
aF38.99754386604742
aF39.5523460362579
aF39.97891888083129
aF40.710694982786876
aF49.17095412347522
aF46.11259742349177
aF38.99754386604742
aF40.56220446477943
aF40.12316191592259
aF39.13478010554484
aF37.93335871165452
aF43.243600571776106
aF48.95449799175572
aF39.5523460362579
aF38.06319473062353
aF38.06319473062353
aF37.93335871165452
aF38.19392259197235
aF38.19392259197235
aF37.42275298858945
aF50.741455241655096
aF40.12316191592259
aF40.12316191592259
aF40.12316191592259
aF40.56220446477943
aF39.5523460362579
aF40.12316191592259
aF41.31569053170637
aF40.710694982786876
aF39.97891888083129
aF40.26844957119621
aF48.10740099219773
aF37.54911136952685
aF38.06319473062353
aF38.59155007780303
aF38.59155007780303
aF38.32555151645486
aF43.243600571776106
aF36.08693564067917
aF37.42275298858945
aF39.97891888083129
aF40.710694982786876
aF41.78137055555305
aF43.076095932966545
aF54.46945488813873
aF43.92685204350072
aF41.78137055555305
aF41.31569053170637
aF40.710694982786876
aF39.412170811543376
aF45.54601914454079
aF43.243600571776106
aF38.99754386604742
aF38.59155007780303
aF38.06319473062353
aF44.99319479081871
aF41.78137055555305
aF38.99754386604742
aF41.16276211895311
aF41.78137055555305
aF41.62498184632937
aF46.49821293875824
aF40.56220446477943
aF42.58127855489816
aF41.78137055555305
aF41.78137055555305
aF45.36024107983404
aF45.9221782299239
aF37.04872942621957
aF41.93893882870802
aF39.69352192790213
aF41.31569053170637
aF42.74494971625547
aF43.41241300481412
aF44.10105185681042
aF47.694751667927584
aF46.49821293875824
aF44.453629544825866
aF43.75402299935947
aF43.243600571776106
aF41.16276211895311
aF44.453629544825866
aF54.73756125605178
aF41.93893882870802
aF48.10740099219773
aF43.243600571776106
aF43.41241300481412
aF43.41241300481412
aF44.63204095622314
aF39.69352192790213
aF44.27663881231197
aF41.93893882870802
aF41.31569053170637
aF43.75402299935947
aF52.41558872492737
aF41.62498184632937
aF43.243600571776106
aF44.453629544825866
aF45.9221782299239
aF46.69344937681493
aF55.836909957442025
aF51.684764523367335
aF47.694751667927584
aF43.92685204350072
aF44.99319479081871
aF43.92685204350072
aF45.9221782299239
aF44.99319479081871
aF45.17597240209357
aF47.491070345689934
aF45.9221782299239
aF47.491070345689934
aF46.89033224322788
aF46.49821293875824
aF47.491070345689934
aF46.69344937681493
aF46.49821293875824
aF47.491070345689934
aF49.17095412347522
aF51.684764523367335
aF54.46945488813873
aF44.453629544825866
aF55.55795359396014
aF48.31641493268267
aF48.31641493268267
aF47.491070345689934
aF47.491070345689934
aF47.491070345689934
aF46.69344937681493
aF46.89033224322788
aF47.694751667927584
aF47.90018762631179
aF45.9221782299239
aF48.10740099219773
aF48.95449799175572
aF52.66381137658195
aF51.44566430240799
aF48.31641493268267
aF46.69344937681493
aF45.36024107983404
aF43.92685204350072
aa(lp2
(I62
I80
tp3
a(I64
I80
tp4
a(I66
I80
tp5
a(I68
I80
tp6
a(I70
I80
tp7
a(I72
I80
tp8
a(I74
I80
tp9
a(I94
I80
tp10
a(I96
I80
tp11
a(I98
I80
tp12
a(I100
I80
tp13
a(I102
I80
tp14
a(I104
I80
tp15
a(I106
I80
tp16
a(I120
I82
tp17
a(I118
I82
tp18
a(I116
I82
tp19
a(I100
I82
tp20
a(I98
I82
tp21
a(I96
I82
tp22
a(I94
I82
tp23
a(I92
I82
tp24
a(I90
I82
tp25
a(I80
I82
tp26
a(I78
I82
tp27
a(I72
I82
tp28
a(I70
I82
tp29
a(I68
I82
tp30
a(I66
I82
tp31
a(I64
I82
tp32
a(I62
I82
tp33
a(I60
I84
tp34
a(I66
I84
tp35
a(I68
I84
tp36
a(I70
I84
tp37
a(I72
I84
tp38
a(I74
I84
tp39
a(I76
I84
tp40
a(I94
I84
tp41
a(I96
I84
tp42
a(I98
I84
tp43
a(I100
I84
tp44
a(I102
I84
tp45
a(I104
I84
tp46
a(I100
I86
tp47
a(I98
I86
tp48
a(I96
I86
tp49
a(I94
I86
tp50
a(I92
I86
tp51
a(I90
I86
tp52
a(I74
I86
tp53
a(I72
I86
tp54
a(I70
I86
tp55
a(I68
I86
tp56
a(I66
I86
tp57
a(I64
I86
tp58
a(I62
I86
tp59
a(I66
I88
tp60
a(I68
I88
tp61
a(I70
I88
tp62
a(I72
I88
tp63
a(I74
I88
tp64
a(I76
I88
tp65
a(I78
I88
tp66
a(I94
I88
tp67
a(I96
I88
tp68
a(I98
I88
tp69
a(I100
I88
tp70
a(I102
I88
tp71
a(I104
I88
tp72
a(I106
I88
tp73
a(I102
I90
tp74
a(I100
I90
tp75
a(I98
I90
tp76
a(I96
I90
tp77
a(I94
I90
tp78
a(I92
I90
tp79
a(I90
I90
tp80
a(I88
I90
tp81
a(I74
I90
tp82
a(I72
I90
tp83
a(I70
I90
tp84
a(I68
I90
tp85
a(I66
I90
tp86
a(I64
I90
tp87
a(I62
I90
tp88
a(I66
I92
tp89
a(I68
I92
tp90
a(I70
I92
tp91
a(I72
I92
tp92
a(I74
I92
tp93
a(I76
I92
tp94
a(I78
I92
tp95
a(I80
I92
tp96
a(I92
I92
tp97
a(I94
I92
tp98
a(I96
I92
tp99
a(I98
I92
tp100
a(I100
I92
tp101
a(I102
I92
tp102
a(I104
I92
tp103
a(I106
I92
tp104
a(I102
I94
tp105
a(I100
I94
tp106
a(I98
I94
tp107
a(I96
I94
tp108
a(I94
I94
tp109
a(I92
I94
tp110
a(I90
I94
tp111
a(I88
I94
tp112
a(I86
I94
tp113
a(I78
I94
tp114
a(I76
I94
tp115
a(I74
I94
tp116
a(I72
I94
tp117
a(I70
I94
tp118
a(I68
I94
tp119
a(I66
I94
tp120
a(I64
I94
tp121
a(I62
I94
tp122
a(I60
I96
tp123
a(I66
I96
tp124
a(I68
I96
tp125
a(I70
I96
tp126
a(I72
I96
tp127
a(I74
I96
tp128
a(I76
I96
tp129
a(I78
I96
tp130
a(I80
I96
tp131
a(I82
I96
tp132
a(I90
I96
tp133
a(I92
I96
tp134
a(I94
I96
tp135
a(I96
I96
tp136
a(I98
I96
tp137
a(I100
I96
tp138
a(I102
I96
tp139
a(I104
I96
tp140
a(I106
I96
tp141
a(I108
I96
tp142
a(I104
I98
tp143
a(I102
I98
tp144
a(I100
I98
tp145
a(I98
I98
tp146
a(I96
I98
tp147
a(I94
I98
tp148
a(I92
I98
tp149
a(I90
I98
tp150
a(I88
I98
tp151
a(I86
I98
tp152
a(I80
I98
tp153
a(I78
I98
tp154
a(I76
I98
tp155
a(I74
I98
tp156
a(I72
I98
tp157
a(I70
I98
tp158
a(I68
I98
tp159
a(I66
I98
tp160
a(I64
I98
tp161
a(I62
I98
tp162
a(I60
I100
tp163
a(I64
I100
tp164
a(I66
I100
tp165
a(I68
I100
tp166
a(I70
I100
tp167
a(I72
I100
tp168
a(I74
I100
tp169
a(I76
I100
tp170
a(I78
I100
tp171
a(I80
I100
tp172
a(I82
I100
tp173
a(I84
I100
tp174
a(I88
I100
tp175
a(I90
I100
tp176
a(I92
I100
tp177
a(I94
I100
tp178
a(I96
I100
tp179
a(I98
I100
tp180
a(I100
I100
tp181
a(I102
I100
tp182
a(I104
I100
tp183
a(I106
I100
tp184
a(I108
I100
tp185
a(I104
I102
tp186
a(I102
I102
tp187
a(I100
I102
tp188
a(I98
I102
tp189
a(I96
I102
tp190
a(I94
I102
tp191
a(I92
I102
tp192
a(I90
I102
tp193
a(I88
I102
tp194
a(I86
I102
tp195
a(I84
I102
tp196
a(I82
I102
tp197
a(I80
I102
tp198
a(I78
I102
tp199
a(I76
I102
tp200
a(I74
I102
tp201
a(I72
I102
tp202
a(I70
I102
tp203
a(I68
I102
tp204
a(I66
I102
tp205
a(I64
I102
tp206
a(I62
I102
tp207
a(I60
I104
tp208
a(I64
I104
tp209
a(I66
I104
tp210
a(I68
I104
tp211
a(I70
I104
tp212
a(I72
I104
tp213
a(I74
I104
tp214
a(I78
I104
tp215
a(I80
I104
tp216
a(I82
I104
tp217
a(I84
I104
tp218
a(I86
I104
tp219
a(I88
I104
tp220
a(I90
I104
tp221
a(I92
I104
tp222
a(I94
I104
tp223
a(I96
I104
tp224
a(I98
I104
tp225
a(I100
I104
tp226
a(I102
I104
tp227
a(I104
I104
tp228
a(I106
I104
tp229
a(I108
I104
tp230
a(I110
I104
tp231
a(I106
I106
tp232
a(I104
I106
tp233
a(I102
I106
tp234
a(I100
I106
tp235
a(I98
I106
tp236
a(I96
I106
tp237
a(I94
I106
tp238
a(I90
I106
tp239
a(I88
I106
tp240
a(I86
I106
tp241
a(I84
I106
tp242
a(I82
I106
tp243
a(I80
I106
tp244
a(I78
I106
tp245
a(I76
I106
tp246
a(I70
I106
tp247
a(I68
I106
tp248
a(I66
I106
tp249
a(I64
I106
tp250
a(I62
I106
tp251
a(I60
I108
tp252
a(I64
I108
tp253
a(I66
I108
tp254
a(I68
I108
tp255
a(I70
I108
tp256
a(I72
I108
tp257
a(I74
I108
tp258
a(I82
I108
tp259
a(I84
I108
tp260
a(I86
I108
tp261
a(I88
I108
tp262
a(I90
I108
tp263
a(I92
I108
tp264
a(I100
I108
tp265
a(I102
I108
tp266
a(I104
I108
tp267
a(I106
I108
tp268
a(I108
I108
tp269
a(I110
I108
tp270
a(I108
I110
tp271
a(I106
I110
tp272
a(I104
I110
tp273
a(I102
I110
tp274
a(I100
I110
tp275
a(I98
I110
tp276
a(I96
I110
tp277
a(I86
I110
tp278
a(I84
I110
tp279
a(I82
I110
tp280
a(I80
I110
tp281
a(I78
I110
tp282
a(I68
I110
tp283
a(I66
I110
tp284
a(I64
I110
tp285
a(I62
I110
tp286
a(I60
I112
tp287
a(I62
I112
tp288
a(I64
I112
tp289
a(I66
I112
tp290
a(I68
I112
tp291
a(I70
I112
tp292
a(I72
I112
tp293
a(I84
I112
tp294
a(I86
I112
tp295
a(I88
I112
tp296
a(I102
I112
tp297
a(I104
I112
tp298
a(I106
I112
tp299
a(I108
I112
tp300
a(I110
I112
tp301
a(I112
I112
tp302
a(I108
I114
tp303
a(I106
I114
tp304
a(I104
I114
tp305
a(I102
I114
tp306
a(I100
I114
tp307
a(I98
I114
tp308
a(I84
I114
tp309
a(I82
I114
tp310
a(I68
I114
tp311
a(I66
I114
tp312
a(I64
I114
tp313
a(I62
I114
tp314
a(I60
I116
tp315
a(I62
I116
tp316
a(I64
I116
tp317
a(I66
I116
tp318
a(I68
I116
tp319
a(I70
I116
tp320
a(I72
I116
tp321
a(I104
I116
tp322
a(I106
I116
tp323
a(I108
I116
tp324
a(I110
I116
tp325
a(I112
I116
tp326
a(I114
I116
tp327
a(I110
I118
tp328
a(I108
I118
tp329
a(I106
I118
tp330
a(I104
I118
tp331
a(I102
I118
tp332
a(I66
I118
tp333
a(I64
I118
tp334
a(I62
I118
tp335
a(I60
I120
tp336
a(I62
I120
tp337
a(I64
I120
tp338
a(I66
I120
tp339
a(I68
I120
tp340
a(I70
I120
tp341
a(I106
I120
tp342
a(I108
I120
tp343
a(I110
I120
tp344
a(I112
I120
tp345
a(I114
I120
tp346
a(I106
I118
tp347
a(I104
I118
tp348
a(I66
I118
tp349
a(I64
I118
tp350
a(I62
I118
tp351
a(I60
I116
tp352
a(I62
I116
tp353
a(I64
I116
tp354
a(I66
I116
tp355
a(I68
I116
tp356
a(I70
I116
tp357
a(I106
I116
tp358
a(I108
I116
tp359
a(I110
I116
tp360
a(I112
I116
tp361
a(I114
I116
tp362
a(I110
I114
tp363
a(I108
I114
tp364
a(I106
I114
tp365
a(I104
I114
tp366
a(I102
I114
tp367
aa.