(lp0
(F20.0
I530
tp1
a(F25.0
I503
tp2
a(F30.0
I421
tp3
a(F20.0
I565
tp4
a(F20.0
I530
tp5
a(F20.0
I530
tp6
a(F20.0
I529
tp7
a(F25.0
I478
tp8
a(F25.0
I514
tp9
a(F25.0
I479
tp10
a(F25.0
I479
tp11
a(F25.0
I479
tp12
a(F30.0
I427
tp13
a(F30.0
I424
tp14
a(F30.0
I428
tp15
a(F30.0
I432
tp16
a(F30.0
I454
tp17
a(F35.0
I367
tp18
a(F35.0
I367
tp19
a(F35.0
I372
tp20
a(F35.0
I399
tp21
a(F35.0
I376
tp22
a(F40.0
I358
tp23
a(F40.0
I322
tp24
a(F40.0
I325
tp25
a(F40.0
I322
tp26
a(F40.0
I322
tp27
a(F45.0
I290
tp28
a(F45.0
I288
tp29
a(F45.0
I291
tp30
a(F45.0
I278
tp31
a(F45.0
I290
tp32
a(F50.0
I256
tp33
a(F50.0
I256
tp34
a(F50.0
I256
tp35
a(F50.0
I256
tp36
a(F50.0
I255
tp37
a(F50.0
I260
tp38
a(F55.0
I237
tp39
a(F55.0
I239
tp40
a(F55.0
I237
tp41
a(F55.0
I236
tp42
a(F55.0
I236
tp43
a(F55.0
I236
tp44
a(F60.0
I217
tp45
a(F60.0
I219
tp46
a(F60.0
I235
tp47
a(F60.0
I219
tp48
a(F60.0
I217
tp49
a(F70.0
I186
tp50
a(F70.0
I185
tp51
a(F70.0
I187
tp52
a(F70.0
I186
tp53
a(F70.0
I187
tp54
a(F70.0
I189
tp55
a(F80.0
I162
tp56
a(F80.0
I162
tp57
a(F80.0
I165
tp58
a(F80.0
I162
tp59
a(F80.0
I162
tp60
a(F80.0
I162
tp61
a(F90.0
I154
tp62
a(F90.0
I156
tp63
a(F90.0
I145
tp64
a(F90.0
I149
tp65
a(F90.0
I150
tp66
a(F90.0
I146
tp67
a(F90.0
I159
tp68
a(F100.0
I130
tp69
a(F100.0
I130
tp70
a(F100.0
I130
tp71
a(F100.0
I130
tp72
a(F100.0
I129
tp73
a(F100.0
I138
tp74
a(F110.0
I117
tp75
a(F110.0
I118
tp76
a(F110.0
I119
tp77
a(F110.0
I118
tp78
a(F110.0
I117
tp79
a(F110.0
I119
tp80
a(F120.0
I106
tp81
a(F120.0
I109
tp82
a(F120.0
I127
tp83
a(F120.0
I106
tp84
a(F120.0
I110
tp85
a(F120.0
I105
tp86
a.
