(lp0
(lp1
F31.48874912363562
aF33.27914829742079
aF39.13478010554484
aF39.69352192790213
aF38.99754386604742
aF33.99118972893073
aF44.453629544825866
aF40.12316191592259
aF31.57816423957502
aF36.803506444853056
aF36.32267193095456
aF38.99754386604742
aF39.412170811543376
aF34.30576412650896
aF38.59155007780303
aF40.26844957119621
aF41.16276211895311
aF43.92685204350072
aF33.379036605439495
aF29.175608583820704
aF34.518735201618064
aF36.56150834616634
aF37.93335871165452
aF38.861266771874554
aF37.172570459775194
aF38.59155007780303
aF39.5523460362579
aF43.75402299935947
aF40.41479323573322
aF39.97891888083129
aF38.45809085237561
aF37.54911136952685
aF39.13478010554484
aF38.19392259197235
aF36.56150834616634
aF33.99118972893073
aF31.48874912363562
aF33.27914829742079
aF44.63204095622314
aF49.38933291171397
aF48.527253019240405
aF41.78137055555305
aF40.26844957119621
aF39.13478010554484
aF33.99118972893073
aF37.54911136952685
aF39.5523460362579
aF39.13478010554484
aF36.803506444853056
aF31.13609561556665
aF35.739013175062894
aF43.243600571776106
aF47.90018762631179
aF54.73756125605178
aF55.836909957442025
aF55.836909957442025
aF53.42278861433988
aF47.491070345689934
aF37.54911136952685
aF31.311429437025645
aF35.06291390310869
aF38.45809085237561
aF38.99754386604742
aF38.861266771874554
aF34.411920154373824
aF35.85423950457114
aF39.5523460362579
aF40.12316191592259
aF46.69344937681493
aF41.93893882870802
aF30.876746012090063
aF31.849482592114416
aF35.739013175062894
aF36.68210827421235
aF37.42275298858945
aF38.861266771874554
aF37.42275298858945
aF38.06319473062353
aF39.69352192790213
aF44.63204095622314
aF50.51098365034002
aF41.31569053170637
aF39.13478010554484
aF31.049163008189556
aF37.93335871165452
aF38.45809085237561
aF38.06319473062353
aF37.29724218516278
aF34.73436705484322
aF34.518735201618064
aF31.48874912363562
aF40.710694982786876
aF41.01096164824483
aF38.99754386604742
aF38.59155007780303
aF38.06319473062353
aF34.30576412650896
aF38.45809085237561
aF38.45809085237561
aF38.59155007780303
aF37.67632594262979
aF31.399838944487804
aF32.218576929896436
aF43.75402299935947
aF54.46945488813873
aF48.95449799175572
aF35.739013175062894
aF32.59632622003051
aF36.68210827421235
aF38.06319473062353
aF38.59155007780303
aF38.45809085237561
aF36.925710809672886
aF37.80440543969411
aF38.45809085237561
aF38.45809085237561
aF39.5523460362579
aF45.36024107983404
aF45.54601914454079
aF33.58062299117415
aF35.285420016778595
aF36.68210827421235
aF37.29724218516278
aF37.54911136952685
aF37.93335871165452
aF37.93335871165452
aF38.45809085237561
aF38.59155007780303
aF37.80440543969411
aF47.491070345689934
aF43.076095932966545
aF38.861266771874554
aF36.204420054980474
aF38.45809085237561
aF38.06319473062353
aF37.54911136952685
aF37.67632594262979
aF35.06291390310869
aF36.56150834616634
aF36.68210827421235
aF35.739013175062894
aF48.31641493268267
aF51.926097618829715
aF41.62498184632937
aF38.45809085237561
aF37.93335871165452
aF38.06319473062353
aF38.19392259197235
aF37.93335871165452
aF37.93335871165452
aF38.06319473062353
aF38.06319473062353
aF38.72593880282878
aF35.285420016778595
aF34.518735201618064
aF51.684764523367335
aF41.31569053170637
aF35.06291390310869
aF38.45809085237561
aF38.06319473062353
aF38.06319473062353
aF38.19392259197235
aF37.93335871165452
aF37.42275298858945
aF37.42275298858945
aF37.54911136952685
aF37.67632594262979
aF36.803506444853056
aF43.75402299935947
aF40.710694982786876
aF36.204420054980474
aF36.68210827421235
aF37.29724218516278
aF35.51076817356807
aF37.54911136952685
aF37.54911136952685
aF37.93335871165452
aF37.93335871165452
aF36.204420054980474
aF38.99754386604742
aF41.78137055555305
aF50.974039665645414
aF39.97891888083129
aF38.45809085237561
aF38.32555151645486
aF38.06319473062353
aF38.06319473062353
aF37.67632594262979
aF37.54911136952685
aF37.04872942621957
aF37.04872942621957
aF36.68210827421235
aF36.32267193095456
aF36.204420054980474
aF46.69344937681493
aF43.243600571776106
aF38.06319473062353
aF37.42275298858945
aF37.42275298858945
aF35.397735447391106
aF37.42275298858945
aF38.06319473062353
aF38.06319473062353
aF38.19392259197235
aF35.85423950457114
aF38.45809085237561
aF37.54911136952685
aF41.93893882870802
aF41.01096164824483
aF37.54911136952685
aF38.45809085237561
aF38.06319473062353
aF38.19392259197235
aF35.85423950457114
aF37.93335871165452
aF37.42275298858945
aF37.42275298858945
aF37.54911136952685
aF35.397735447391106
aF37.42275298858945
aF39.5523460362579
aF44.63204095622314
aF39.5523460362579
aF35.739013175062894
aF36.204420054980474
aF36.803506444853056
aF37.04872942621957
aF37.04872942621957
aF37.54911136952685
aF37.67632594262979
aF37.93335871165452
aF37.93335871165452
aF38.45809085237561
aF38.59155007780303
aF40.12316191592259
aF44.63204095622314
aF43.75402299935947
aF38.99754386604742
aF38.45809085237561
aF37.93335871165452
aF37.80440543969411
aF37.93335871165452
aF37.54911136952685
aF37.54911136952685
aF37.67632594262979
aF37.172570459775194
aF36.56150834616634
aF36.56150834616634
aF36.204420054980474
aF36.204420054980474
aF42.58127855489816
aF41.31569053170637
aF37.54911136952685
aF37.80440543969411
aF37.04872942621957
aF37.42275298858945
aF37.42275298858945
aF37.54911136952685
aF38.06319473062353
aF38.06319473062353
aF37.93335871165452
aF38.06319473062353
aF38.72593880282878
aF35.85423950457114
aF38.06319473062353
aF50.741455241655096
aF39.13478010554484
aF38.19392259197235
aF38.45809085237561
aF38.45809085237561
aF38.06319473062353
aF38.06319473062353
aF37.67632594262979
aF37.54911136952685
aF37.42275298858945
aF37.42275298858945
aF37.172570459775194
aF35.06291390310869
aF37.04872942621957
aF38.99754386604742
aF44.63204095622314
aF37.67632594262979
aF35.739013175062894
aF36.56150834616634
aF36.68210827421235
aF37.172570459775194
aF35.06291390310869
aF37.04872942621957
aF37.54911136952685
aF37.54911136952685
aF37.67632594262979
aF37.93335871165452
aF37.93335871165452
aF38.45809085237561
aF38.99754386604742
aF40.710694982786876
aF44.81189022080595
aF40.56220446477943
aF38.99754386604742
aF38.59155007780303
aF37.93335871165452
aF37.93335871165452
aF37.80440543969411
aF37.54911136952685
aF37.54911136952685
aF37.172570459775194
aF35.06291390310869
aF37.04872942621957
aF36.68210827421235
aF36.68210827421235
aF36.32267193095456
aF33.88760971661696
aF45.9221782299239
aF42.58127855489816
aF38.06319473062353
aF37.29724218516278
aF37.04872942621957
aF37.04872942621957
aF37.04872942621957
aF37.42275298858945
aF37.42275298858945
aF37.42275298858945
aF37.93335871165452
aF38.06319473062353
aF38.72593880282878
aF36.32267193095456
aF38.45809085237561
aF37.54911136952685
aF44.63204095622314
aF48.31641493268267
aF38.19392259197235
aF38.59155007780303
aF38.59155007780303
aF38.59155007780303
aF38.19392259197235
aF35.85423950457114
aF37.93335871165452
aF37.54911136952685
aF37.67632594262979
aF37.42275298858945
aF36.925710809672886
aF36.925710809672886
aF37.04872942621957
aF37.172570459775194
aF38.19392259197235
aF43.243600571776106
aF38.861266771874554
aF35.285420016778595
aF36.204420054980474
aF36.68210827421235
aF34.62621542416389
aF37.04872942621957
aF37.04872942621957
aF37.67632594262979
aF37.67632594262979
aF37.54911136952685
aF38.06319473062353
aF38.06319473062353
aF37.93335871165452
aF38.45809085237561
aF38.861266771874554
aF39.97891888083129
aF45.9221782299239
aF42.58127855489816
aF39.69352192790213
aF36.803506444853056
aF38.45809085237561
aF38.06319473062353
aF37.93335871165452
aF37.93335871165452
aF37.42275298858945
aF37.42275298858945
aF37.54911136952685
aF37.67632594262979
aF35.17381507548624
aF37.04872942621957
aF36.56150834616634
aF36.68210827421235
aF36.32267193095456
aF33.47952635388104
aF43.243600571776106
aF49.17095412347522
aF40.710694982786876
aF38.06319473062353
aF37.04872942621957
aF37.172570459775194
aF35.06291390310869
aF37.04872942621957
aF37.54911136952685
aF37.54911136952685
aF37.42275298858945
aF37.93335871165452
aF37.93335871165452
aF38.06319473062353
aF38.59155007780303
aF36.32267193095456
aF38.45809085237561
aF37.93335871165452
aF39.13478010554484
aF41.93893882870802
aF35.85423950457114
aF38.45809085237561
aF38.45809085237561
aF38.59155007780303
aF38.19392259197235
aF38.06319473062353
aF38.06319473062353
aF37.54911136952685
aF37.67632594262979
aF35.62452508876756
aF37.04872942621957
aF36.925710809672886
aF36.925710809672886
aF37.172570459775194
aF35.06291390310869
aF37.93335871165452
aF44.453629544825866
aF42.58127855489816
aF35.17381507548624
aF36.08693564067917
aF36.68210827421235
aF34.62621542416389
aF37.04872942621957
aF37.04872942621957
aF37.172570459775194
aF37.80440543969411
aF37.54911136952685
aF37.54911136952685
aF38.06319473062353
aF38.06319473062353
aF38.19392259197235
aF38.59155007780303
aF38.99754386604742
aF39.412170811543376
aF42.41885601204744
aF50.741455241655096
aF40.26844957119621
aF38.99754386604742
aF38.99754386604742
aF38.59155007780303
aF38.59155007780303
aF38.19392259197235
aF35.97021124090935
aF37.93335871165452
aF37.42275298858945
aF37.42275298858945
aF35.06291390310869
aF37.04872942621957
aF37.04872942621957
aF37.172570459775194
aF36.68210827421235
aF34.62621542416389
aF35.739013175062894
aF35.739013175062894
aF46.89033224322788
aF42.257667853760935
aF40.56220446477943
aF38.06319473062353
aF37.172570459775194
aF37.172570459775194
aF35.06291390310869
aF37.04872942621957
aF37.04872942621957
aF37.67632594262979
aF37.67632594262979
aF38.06319473062353
aF38.06319473062353
aF37.93335871165452
aF38.32555151645486
aF36.32267193095456
aF38.45809085237561
aF38.99754386604742
aF38.59155007780303
aF38.19392259197235
aF47.28912127557156
aF37.93335871165452
aF38.45809085237561
aF38.99754386604742
aF39.13478010554484
aF38.59155007780303
aF38.45809085237561
aF38.59155007780303
aF38.06319473062353
aF38.06319473062353
aF35.51076817356807
aF37.42275298858945
aF37.54911136952685
aF37.04872942621957
aF36.925710809672886
aF36.925710809672886
aF36.925710809672886
aF37.04872942621957
aF38.06319473062353
aF41.93893882870802
aF44.453629544825866
aF35.285420016778595
aF36.204420054980474
aF36.56150834616634
aF36.441698813357824
aF36.925710809672886
aF37.04872942621957
aF37.172570459775194
aF37.67632594262979
aF37.54911136952685
aF37.54911136952685
aF38.06319473062353
aF38.06319473062353
aF38.59155007780303
aF38.59155007780303
aF38.45809085237561
aF38.99754386604742
aF39.412170811543376
aF40.56220446477943
aF46.49821293875824
aF40.41479323573322
aF40.12316191592259
aF39.5523460362579
aF39.13478010554484
aF38.72593880282878
aF36.32267193095456
aF38.45809085237561
aF38.06319473062353
aF38.06319473062353
aF37.54911136952685
aF37.42275298858945
aF37.42275298858945
aF37.54911136952685
aF37.172570459775194
aF35.06291390310869
aF37.04872942621957
aF36.56150834616634
aF36.68210827421235
aF33.58062299117415
aF37.04872942621957
aF48.95449799175572
aF47.90018762631179
aF40.56220446477943
aF37.42275298858945
aF37.172570459775194
aF37.04872942621957
aF37.04872942621957
aF37.04872942621957
aF37.172570459775194
aF35.51076817356807
aF37.54911136952685
aF37.54911136952685
aF38.19392259197235
aF38.19392259197235
aF38.45809085237561
aF38.45809085237561
aF38.45809085237561
aF38.861266771874554
aF38.99754386604742
aF38.99754386604742
aF38.06319473062353
aF42.74494971625547
aF52.66381137658195
aF37.93335871165452
aF38.861266771874554
aF38.861266771874554
aF38.99754386604742
aF38.59155007780303
aF38.72593880282878
aF38.59155007780303
aF37.93335871165452
aF38.06319473062353
aF38.06319473062353
aF37.67632594262979
aF37.54911136952685
aF37.04872942621957
aF37.172570459775194
aF37.04872942621957
aF36.925710809672886
aF37.42275298858945
aF37.42275298858945
aF38.06319473062353
aF41.93893882870802
aF36.32267193095456
aF35.739013175062894
aF36.56150834616634
aF36.68210827421235
aF37.29724218516278
aF36.925710809672886
aF36.925710809672886
aF37.42275298858945
aF37.67632594262979
aF35.51076817356807
aF38.06319473062353
aF38.06319473062353
aF38.06319473062353
aF38.59155007780303
aF38.45809085237561
aF38.99754386604742
aF37.04872942621957
aF39.69352192790213
aF40.26844957119621
aF42.41885601204744
aF49.609660087543205
aF41.16276211895311
aF40.12316191592259
aF39.69352192790213
aF39.272985652110656
aF36.08693564067917
aF38.45809085237561
aF38.59155007780303
aF38.06319473062353
aF38.19392259197235
aF38.06319473062353
aF38.06319473062353
aF37.54911136952685
aF37.42275298858945
aF37.42275298858945
aF37.42275298858945
aF37.04872942621957
aF37.172570459775194
aF34.62621542416389
aF36.56150834616634
aF35.739013175062894
aF38.59155007780303
aF47.491070345689934
aF41.16276211895311
aF38.19392259197235
aF37.42275298858945
aF36.925710809672886
aF36.925710809672886
aF37.54911136952685
aF37.67632594262979
aF37.54911136952685
aF37.54911136952685
aF38.06319473062353
aF38.19392259197235
aF35.85423950457114
aF38.45809085237561
aF38.59155007780303
aF38.59155007780303
aF39.13478010554484
aF38.99754386604742
aF38.861266771874554
aF39.412170811543376
aF38.59155007780303
aF41.16276211895311
aF49.17095412347522
aF38.72593880282878
aF39.5523460362579
aF39.412170811543376
aF38.861266771874554
aF38.861266771874554
aF36.803506444853056
aF38.45809085237561
aF38.45809085237561
aF38.59155007780303
aF38.72593880282878
aF36.803506444853056
aF37.54911136952685
aF37.54911136952685
aF37.67632594262979
aF37.80440543969411
aF35.51076817356807
aF37.42275298858945
aF37.42275298858945
aF37.42275298858945
aF38.59155007780303
aF42.41885601204744
aF50.741455241655096
aF38.59155007780303
aF35.85423950457114
aF36.56150834616634
aF37.04872942621957
aF37.04872942621957
aF37.54911136952685
aF37.67632594262979
aF37.54911136952685
aF37.93335871165452
aF37.42275298858945
aF37.54911136952685
aF35.85423950457114
aF37.93335871165452
aF38.45809085237561
aF38.59155007780303
aF39.13478010554484
aF39.13478010554484
aF39.5523460362579
aF39.5523460362579
aF40.12316191592259
aF41.31569053170637
aF46.11259742349177
aF42.41885601204744
aF40.41479323573322
aF40.12316191592259
aF39.5523460362579
aF39.69352192790213
aF36.925710809672886
aF38.99754386604742
aF38.99754386604742
aF38.59155007780303
aF38.59155007780303
aF38.19392259197235
aF37.04872942621957
aF37.54911136952685
aF40.12316191592259
aF38.45809085237561
aF37.42275298858945
aF37.42275298858945
aF37.54911136952685
aF37.04872942621957
aF37.172570459775194
aF35.06291390310869
aF35.62452508876756
aF36.68210827421235
aF45.17597240209357
aF40.26844957119621
aF36.32267193095456
aF37.54911136952685
aF37.54911136952685
aF37.42275298858945
aF37.42275298858945
aF37.42275298858945
aF37.54911136952685
aF37.04872942621957
aF37.67632594262979
aF43.41241300481412
aF41.16276211895311
aF38.99754386604742
aF38.99754386604742
aF39.13478010554484
aF39.13478010554484
aF38.99754386604742
aF39.5523460362579
aF39.412170811543376
aF39.412170811543376
aF38.861266771874554
aF39.412170811543376
aF57.87089750608336
aF40.710694982786876
aF36.803506444853056
aF39.5523460362579
aF39.5523460362579
aF39.5523460362579
aF39.412170811543376
aF38.861266771874554
aF38.99754386604742
aF38.99754386604742
aF39.69352192790213
aF45.36024107983404
aF47.28912127557156
aF38.59155007780303
aF37.172570459775194
aF35.51076817356807
aF37.54911136952685
aF37.54911136952685
aF37.42275298858945
aF37.42275298858945
aF37.93335871165452
aF38.45809085237561
aF41.16276211895311
aF36.204420054980474
aF35.397735447391106
aF35.06291390310869
aF37.04872942621957
aF37.54911136952685
aF37.54911136952685
aF38.19392259197235
aF36.32267193095456
aF39.5523460362579
aF45.17597240209357
aF37.93335871165452
aF36.925710809672886
aF37.93335871165452
aF38.45809085237561
aF38.59155007780303
aF39.13478010554484
aF39.272985652110656
aF37.29724218516278
aF39.5523460362579
aF40.12316191592259
aF40.12316191592259
aF41.31569053170637
aF43.41241300481412
aF50.741455241655096
aF41.78137055555305
aF40.56220446477943
aF40.56220446477943
aF40.12316191592259
aF39.5523460362579
aF39.5523460362579
aF38.99754386604742
aF39.13478010554484
aF38.72593880282878
aF38.59155007780303
aF37.54911136952685
aF37.54911136952685
aF45.36024107983404
aF49.38933291171397
aF43.75402299935947
aF38.99754386604742
aF38.45809085237561
aF37.93335871165452
aF37.54911136952685
aF37.54911136952685
aF37.54911136952685
aF37.172570459775194
aF34.30576412650896
aF38.99754386604742
aF38.06319473062353
aF38.06319473062353
aF37.67632594262979
aF35.51076817356807
aF37.54911136952685
aF37.42275298858945
aF37.42275298858945
aF37.42275298858945
aF42.41885601204744
aF46.89033224322788
aF38.19392259197235
aF39.5523460362579
aF39.13478010554484
aF39.69352192790213
aF39.69352192790213
aF39.69352192790213
aF40.12316191592259
aF40.12316191592259
aF39.412170811543376
aF38.861266771874554
aF51.684764523367335
aF58.173627196809434
aF40.710694982786876
aF37.42275298858945
aF40.12316191592259
aF40.12316191592259
aF40.26844957119621
aF39.5523460362579
aF39.412170811543376
aF39.412170811543376
aF39.5523460362579
aF41.78137055555305
aF44.63204095622314
aF44.63204095622314
aF35.51076817356807
aF37.54911136952685
aF37.54911136952685
aF37.67632594262979
aF38.19392259197235
aF37.93335871165452
aF37.93335871165452
aF37.93335871165452
aF37.54911136952685
aF37.67632594262979
aF37.54911136952685
aF37.93335871165452
aF38.06319473062353
aF38.59155007780303
aF37.29724218516278
aF43.076095932966545
aF40.56220446477943
aF37.80440543969411
aF38.45809085237561
aF39.13478010554484
aF39.69352192790213
aF37.29724218516278
aF39.5523460362579
aF40.12316191592259
aF40.12316191592259
aF40.860276686522376
aF38.861266771874554
aF41.78137055555305
aF46.69344937681493
aF45.17597240209357
aF41.93893882870802
aF41.31569053170637
aF40.56220446477943
aF39.97891888083129
aF39.97891888083129
aF39.5523460362579
aF39.69352192790213
aF36.803506444853056
aF38.99754386604742
aF38.06319473062353
aF38.59155007780303
aF47.694751667927584
aF43.75402299935947
aF39.412170811543376
aF38.45809085237561
aF37.93335871165452
aF38.06319473062353
aF35.97021124090935
aF37.93335871165452
aF38.06319473062353
aF38.06319473062353
aF38.19392259197235
aF37.93335871165452
aF38.06319473062353
aF37.54911136952685
aF37.67632594262979
aF41.93893882870802
aF48.527253019240405
aF42.58127855489816
aF40.12316191592259
aF40.12316191592259
aF40.26844957119621
aF40.12316191592259
aF40.12316191592259
aF40.12316191592259
aF40.710694982786876
aF40.26844957119621
aF38.99754386604742
aF51.44566430240799
aF48.31641493268267
aF39.13478010554484
aF37.80440543969411
aF40.710694982786876
aF40.710694982786876
aF40.710694982786876
aF40.26844957119621
aF40.12316191592259
aF39.97891888083129
aF39.97891888083129
aF43.5825486080303
aF39.97891888083129
aF37.54911136952685
aF37.67632594262979
aF38.19392259197235
aF35.85423950457114
aF37.93335871165452
aF37.93335871165452
aF37.93335871165452
aF38.06319473062353
aF38.45809085237561
aF38.45809085237561
aF38.99754386604742
aF41.93893882870802
aF45.73332521808363
aF39.5523460362579
aF37.93335871165452
aF38.99754386604742
aF39.5523460362579
aF37.29724218516278
aF40.12316191592259
aF40.710694982786876
aF40.710694982786876
aF41.31569053170637
aF41.46975950501859
aF39.272985652110656
aF43.75402299935947
aF53.680665908489715
aF47.28912127557156
aF43.243600571776106
aF42.58127855489816
aF41.31569053170637
aF38.861266771874554
aF40.56220446477943
aF40.56220446477943
aF39.97891888083129
aF40.12316191592259
aF37.29724218516278
aF38.99754386604742
aF38.59155007780303
aF48.31641493268267
aF50.741455241655096
aF42.41885601204744
aF39.412170811543376
aF38.32555151645486
aF36.32267193095456
aF38.45809085237561
aF38.59155007780303
aF38.59155007780303
aF38.19392259197235
aF38.06319473062353
aF37.54911136952685
aF38.06319473062353
aF51.926097618829715
aF46.49821293875824
aF41.16276211895311
aF40.26844957119621
aF40.26844957119621
aF40.12316191592259
aF40.56220446477943
aF40.710694982786876
aF41.46975950501859
aF38.72593880282878
aF40.12316191592259
aF43.076095932966545
aF43.243600571776106
aF37.29724218516278
aF41.16276211895311
aF41.16276211895311
aF41.31569053170637
aF41.46975950501859
aF38.32555151645486
aF40.710694982786876
aF40.710694982786876
aF41.78137055555305
aF47.28912127557156
aF49.17095412347522
aF40.860276686522376
aF35.85423950457114
aF38.06319473062353
aF38.59155007780303
aF38.59155007780303
aF38.45809085237561
aF38.861266771874554
aF38.861266771874554
aF40.710694982786876
aF45.36024107983404
aF52.66381137658195
aF40.12316191592259
aF38.99754386604742
aF39.97891888083129
aF39.97891888083129
aF40.56220446477943
aF41.16276211895311
aF41.31569053170637
aF41.93893882870802
aF41.78137055555305
aF42.58127855489816
aF43.243600571776106
aF46.69344937681493
aF53.42278861433988
aF44.453629544825866
aF43.243600571776106
aF42.74494971625547
aF39.272985652110656
aF41.78137055555305
aF41.16276211895311
aF41.31569053170637
aF40.56220446477943
aF39.97891888083129
aF39.97891888083129
aF38.99754386604742
aF43.92685204350072
aF45.73332521808363
aF41.16276211895311
aF39.412170811543376
aF38.99754386604742
aF38.99754386604742
aF38.59155007780303
aF36.441698813357824
aF38.45809085237561
aF43.076095932966545
aF52.41558872492737
aF43.75402299935947
aF41.31569053170637
aF41.46975950501859
aF41.16276211895311
aF41.16276211895311
aF41.16276211895311
aF41.93893882870802
aF41.93893882870802
aF40.710694982786876
aF41.01096164824483
aF49.83196184323967
aF41.16276211895311
aF40.860276686522376
aF39.272985652110656
aF41.78137055555305
aF41.78137055555305
aF41.78137055555305
aF41.46975950501859
aF39.13478010554484
aF41.16276211895311
aF43.243600571776106
aF53.680665908489715
aF44.63204095622314
aF36.441698813357824
aF38.59155007780303
aF38.99754386604742
aF39.13478010554484
aF39.97891888083129
aF43.076095932966545
aF51.44566430240799
aF40.12316191592259
aF39.97891888083129
aF39.97891888083129
aF41.01096164824483
aF41.16276211895311
aF41.78137055555305
aF42.58127855489816
aF42.74494971625547
aF40.41479323573322
aF43.75402299935947
aF44.453629544825866
aF50.741455241655096
aF47.491070345689934
aF44.453629544825866
aF43.5825486080303
aF43.243600571776106
aF43.243600571776106
aF42.58127855489816
aF42.09770006162848
aF39.272985652110656
aF41.16276211895311
aF40.56220446477943
aF39.97891888083129
aF45.73332521808363
aF44.27663881231197
aF41.62498184632937
aF37.29724218516278
aF38.99754386604742
aF44.453629544825866
aF46.49821293875824
aF42.74494971625547
aF41.78137055555305
aF41.78137055555305
aF41.78137055555305
aF42.74494971625547
aF42.74494971625547
aF42.58127855489816
aF41.78137055555305
aF40.56220446477943
aF43.076095932966545
aF40.710694982786876
aF39.69352192790213
aF43.243600571776106
aF42.58127855489816
aF42.58127855489816
aF42.74494971625547
aF40.41479323573322
aF42.58127855489816
aF42.58127855489816
aF48.31641493268267
aF51.684764523367335
aF41.16276211895311
aF44.453629544825866
aF50.974039665645414
aF40.710694982786876
aF40.56220446477943
aF41.78137055555305
aF41.62498184632937
aF42.58127855489816
aF43.243600571776106
aF43.92685204350072
aF43.92685204350072
aF44.81189022080595
aF42.74494971625547
aF46.69344937681493
aF55.836909957442025
aF54.46945488813873
aF46.89033224322788
aF46.11259742349177
aF44.63204095622314
aF44.453629544825866
aF43.92685204350072
aF43.243600571776106
aF43.41241300481412
aF39.69352192790213
aF41.16276211895311
aF40.710694982786876
aF45.9221782299239
aF49.609660087543205
aF52.41558872492737
aF44.27663881231197
aF42.74494971625547
aF40.26844957119621
aF43.243600571776106
aF43.243600571776106
aF43.243600571776106
aF43.41241300481412
aF40.860276686522376
aF41.78137055555305
aF36.925710809672886
aF40.56220446477943
aF43.243600571776106
aF44.10105185681042
aF41.46975950501859
aF43.75402299935947
aF43.243600571776106
aF43.243600571776106
aF43.41241300481412
aF42.74494971625547
aF51.684764523367335
aF53.9410448789214
aF40.860276686522376
aF41.78137055555305
aF42.41885601204744
aF43.076095932966545
aF43.92685204350072
aF44.81189022080595
aF44.453629544825866
aF45.17597240209357
aF45.9221782299239
aF46.69344937681493
aF50.0562648426655
aF59.416895165512955
aF48.10740099219773
aF43.75402299935947
aF45.9221782299239
aF45.17597240209357
aF45.36024107983404
aF44.63204095622314
aF41.46975950501859
aF43.92685204350072
aF42.58127855489816
aF41.93893882870802
aF46.69344937681493
aF47.90018762631179
aF44.27663881231197
aF43.92685204350072
aF43.92685204350072
aF44.63204095622314
aF44.453629544825866
aF44.453629544825866
aF44.63204095622314
aF45.17597240209357
aF40.56220446477943
aF44.99319479081871
aF44.99319479081871
aF45.17597240209357
aF44.453629544825866
aF44.63204095622314
aF42.09770006162848
aF44.453629544825866
aF45.17597240209357
aF49.17095412347522
aF41.46975950501859
aF43.076095932966545
aF43.75402299935947
aF44.453629544825866
aF45.36024107983404
aF45.36024107983404
aF45.9221782299239
aF46.69344937681493
aF47.491070345689934
aF49.17095412347522
aF53.9410448789214
aF53.42278861433988
aF48.95449799175572
aF48.10740099219773
aF47.28912127557156
aF46.69344937681493
aF45.9221782299239
aF45.36024107983404
aF45.54601914454079
aF41.46975950501859
aF43.75402299935947
aF54.46945488813873
aF46.49821293875824
aF44.99319479081871
aF45.17597240209357
aF45.17597240209357
aF46.11259742349177
aF46.11259742349177
aF45.9221782299239
aF43.92685204350072
aF44.453629544825866
aF46.49821293875824
aF46.49821293875824
aF46.49821293875824
aF45.9221782299239
aF45.9221782299239
aF45.9221782299239
aF46.11259742349177
aF47.694751667927584
aF58.173627196809434
aF48.31641493268267
aF44.453629544825866
aF44.99319479081871
aF45.73332521808363
aF46.49821293875824
aF47.491070345689934
aF47.491070345689934
aF49.38933291171397
aF46.89033224322788
aF51.684764523367335
aF61.7254539762749
aF51.926097618829715
aF49.83196184323967
aF48.73993923658287
aF47.90018762631179
aF48.31641493268267
aF46.89033224322788
aF43.41241300481412
aF45.17597240209357
aF45.9221782299239
aF49.83196184323967
aF46.49821293875824
aF46.49821293875824
aF46.69344937681493
aF46.69344937681493
aF46.69344937681493
aF47.694751667927584
aF48.527253019240405
aF48.10740099219773
aF48.10740099219773
aF48.10740099219773
aF47.28912127557156
aF47.28912127557156
aF47.28912127557156
aF47.491070345689934
aF48.31641493268267
aF54.73756125605178
aF57.274793009606334
aF58.479540774364814
aF45.17597240209357
aF46.49821293875824
aF48.73993923658287
aF50.0562648426655
aF47.694751667927584
aF53.42278861433988
aF56.98132233674722
aF57.87089750608336
aF54.46945488813873
aF48.31641493268267
aF46.89033224322788
aF56.98132233674722
aa(lp2
(I66
I80
tp3
a(I67
I80
tp4
a(I68
I80
tp5
a(I69
I80
tp6
a(I70
I80
tp7
a(I71
I80
tp8
a(I64
I80
tp9
a(I65
I80
tp10
a(I66
I80
tp11
a(I67
I80
tp12
a(I68
I80
tp13
a(I69
I80
tp14
a(I70
I80
tp15
a(I71
I80
tp16
a(I72
I80
tp17
a(I73
I80
tp18
a(I74
I80
tp19
a(I93
I80
tp20
a(I94
I80
tp21
a(I95
I80
tp22
a(I96
I80
tp23
a(I97
I80
tp24
a(I98
I80
tp25
a(I99
I80
tp26
a(I100
I80
tp27
a(I101
I80
tp28
a(I102
I80
tp29
a(I103
I80
tp30
a(I101
I81
tp31
a(I100
I81
tp32
a(I99
I81
tp33
a(I98
I81
tp34
a(I97
I81
tp35
a(I96
I81
tp36
a(I95
I81
tp37
a(I94
I81
tp38
a(I93
I81
tp39
a(I92
I81
tp40
a(I91
I81
tp41
a(I85
I81
tp42
a(I80
I81
tp43
a(I72
I81
tp44
a(I71
I81
tp45
a(I70
I81
tp46
a(I69
I81
tp47
a(I68
I81
tp48
a(I67
I81
tp49
a(I66
I81
tp50
a(I65
I81
tp51
a(I64
I81
tp52
a(I63
I81
tp53
a(I62
I81
tp54
a(I61
I81
tp55
a(I60
I82
tp56
a(I61
I82
tp57
a(I62
I82
tp58
a(I63
I82
tp59
a(I64
I82
tp60
a(I65
I82
tp61
a(I66
I82
tp62
a(I67
I82
tp63
a(I68
I82
tp64
a(I69
I82
tp65
a(I70
I82
tp66
a(I71
I82
tp67
a(I72
I82
tp68
a(I73
I82
tp69
a(I74
I82
tp70
a(I75
I82
tp71
a(I93
I82
tp72
a(I94
I82
tp73
a(I95
I82
tp74
a(I96
I82
tp75
a(I97
I82
tp76
a(I98
I82
tp77
a(I99
I82
tp78
a(I100
I82
tp79
a(I101
I82
tp80
a(I102
I82
tp81
a(I103
I82
tp82
a(I102
I83
tp83
a(I101
I83
tp84
a(I100
I83
tp85
a(I99
I83
tp86
a(I98
I83
tp87
a(I97
I83
tp88
a(I96
I83
tp89
a(I95
I83
tp90
a(I94
I83
tp91
a(I93
I83
tp92
a(I92
I83
tp93
a(I91
I83
tp94
a(I73
I83
tp95
a(I72
I83
tp96
a(I71
I83
tp97
a(I70
I83
tp98
a(I69
I83
tp99
a(I68
I83
tp100
a(I67
I83
tp101
a(I66
I83
tp102
a(I65
I83
tp103
a(I64
I83
tp104
a(I63
I83
tp105
a(I62
I83
tp106
a(I61
I83
tp107
a(I64
I84
tp108
a(I65
I84
tp109
a(I66
I84
tp110
a(I67
I84
tp111
a(I68
I84
tp112
a(I69
I84
tp113
a(I70
I84
tp114
a(I71
I84
tp115
a(I72
I84
tp116
a(I73
I84
tp117
a(I74
I84
tp118
a(I75
I84
tp119
a(I76
I84
tp120
a(I93
I84
tp121
a(I94
I84
tp122
a(I95
I84
tp123
a(I96
I84
tp124
a(I97
I84
tp125
a(I98
I84
tp126
a(I99
I84
tp127
a(I100
I84
tp128
a(I101
I84
tp129
a(I102
I84
tp130
a(I103
I84
tp131
a(I104
I84
tp132
a(I102
I85
tp133
a(I101
I85
tp134
a(I100
I85
tp135
a(I99
I85
tp136
a(I98
I85
tp137
a(I97
I85
tp138
a(I96
I85
tp139
a(I95
I85
tp140
a(I94
I85
tp141
a(I93
I85
tp142
a(I92
I85
tp143
a(I91
I85
tp144
a(I75
I85
tp145
a(I74
I85
tp146
a(I73
I85
tp147
a(I72
I85
tp148
a(I71
I85
tp149
a(I70
I85
tp150
a(I69
I85
tp151
a(I68
I85
tp152
a(I67
I85
tp153
a(I66
I85
tp154
a(I65
I85
tp155
a(I64
I85
tp156
a(I63
I85
tp157
a(I62
I85
tp158
a(I65
I86
tp159
a(I66
I86
tp160
a(I67
I86
tp161
a(I68
I86
tp162
a(I69
I86
tp163
a(I70
I86
tp164
a(I71
I86
tp165
a(I72
I86
tp166
a(I73
I86
tp167
a(I74
I86
tp168
a(I75
I86
tp169
a(I76
I86
tp170
a(I77
I86
tp171
a(I93
I86
tp172
a(I94
I86
tp173
a(I95
I86
tp174
a(I96
I86
tp175
a(I97
I86
tp176
a(I98
I86
tp177
a(I99
I86
tp178
a(I100
I86
tp179
a(I101
I86
tp180
a(I102
I86
tp181
a(I103
I86
tp182
a(I104
I86
tp183
a(I103
I87
tp184
a(I102
I87
tp185
a(I101
I87
tp186
a(I100
I87
tp187
a(I99
I87
tp188
a(I98
I87
tp189
a(I97
I87
tp190
a(I96
I87
tp191
a(I95
I87
tp192
a(I94
I87
tp193
a(I93
I87
tp194
a(I92
I87
tp195
a(I91
I87
tp196
a(I90
I87
tp197
a(I75
I87
tp198
a(I74
I87
tp199
a(I73
I87
tp200
a(I72
I87
tp201
a(I71
I87
tp202
a(I70
I87
tp203
a(I69
I87
tp204
a(I68
I87
tp205
a(I67
I87
tp206
a(I66
I87
tp207
a(I65
I87
tp208
a(I64
I87
tp209
a(I63
I87
tp210
a(I65
I88
tp211
a(I66
I88
tp212
a(I67
I88
tp213
a(I68
I88
tp214
a(I69
I88
tp215
a(I70
I88
tp216
a(I71
I88
tp217
a(I72
I88
tp218
a(I73
I88
tp219
a(I74
I88
tp220
a(I75
I88
tp221
a(I76
I88
tp222
a(I77
I88
tp223
a(I78
I88
tp224
a(I92
I88
tp225
a(I93
I88
tp226
a(I94
I88
tp227
a(I95
I88
tp228
a(I96
I88
tp229
a(I97
I88
tp230
a(I98
I88
tp231
a(I99
I88
tp232
a(I100
I88
tp233
a(I101
I88
tp234
a(I102
I88
tp235
a(I103
I88
tp236
a(I104
I88
tp237
a(I105
I88
tp238
a(I103
I89
tp239
a(I102
I89
tp240
a(I101
I89
tp241
a(I100
I89
tp242
a(I99
I89
tp243
a(I98
I89
tp244
a(I97
I89
tp245
a(I96
I89
tp246
a(I95
I89
tp247
a(I94
I89
tp248
a(I93
I89
tp249
a(I92
I89
tp250
a(I91
I89
tp251
a(I90
I89
tp252
a(I89
I89
tp253
a(I76
I89
tp254
a(I75
I89
tp255
a(I74
I89
tp256
a(I73
I89
tp257
a(I72
I89
tp258
a(I71
I89
tp259
a(I70
I89
tp260
a(I69
I89
tp261
a(I68
I89
tp262
a(I67
I89
tp263
a(I66
I89
tp264
a(I65
I89
tp265
a(I64
I89
tp266
a(I63
I89
tp267
a(I62
I89
tp268
a(I65
I90
tp269
a(I66
I90
tp270
a(I67
I90
tp271
a(I68
I90
tp272
a(I69
I90
tp273
a(I70
I90
tp274
a(I71
I90
tp275
a(I72
I90
tp276
a(I73
I90
tp277
a(I74
I90
tp278
a(I75
I90
tp279
a(I76
I90
tp280
a(I77
I90
tp281
a(I78
I90
tp282
a(I79
I90
tp283
a(I91
I90
tp284
a(I92
I90
tp285
a(I93
I90
tp286
a(I94
I90
tp287
a(I95
I90
tp288
a(I96
I90
tp289
a(I97
I90
tp290
a(I98
I90
tp291
a(I99
I90
tp292
a(I100
I90
tp293
a(I101
I90
tp294
a(I102
I90
tp295
a(I103
I90
tp296
a(I104
I90
tp297
a(I105
I90
tp298
a(I104
I91
tp299
a(I103
I91
tp300
a(I102
I91
tp301
a(I101
I91
tp302
a(I100
I91
tp303
a(I99
I91
tp304
a(I98
I91
tp305
a(I97
I91
tp306
a(I96
I91
tp307
a(I95
I91
tp308
a(I94
I91
tp309
a(I93
I91
tp310
a(I92
I91
tp311
a(I91
I91
tp312
a(I90
I91
tp313
a(I89
I91
tp314
a(I88
I91
tp315
a(I77
I91
tp316
a(I76
I91
tp317
a(I75
I91
tp318
a(I74
I91
tp319
a(I73
I91
tp320
a(I72
I91
tp321
a(I71
I91
tp322
a(I70
I91
tp323
a(I69
I91
tp324
a(I68
I91
tp325
a(I67
I91
tp326
a(I66
I91
tp327
a(I65
I91
tp328
a(I64
I91
tp329
a(I63
I91
tp330
a(I62
I91
tp331
a(I64
I92
tp332
a(I65
I92
tp333
a(I66
I92
tp334
a(I67
I92
tp335
a(I68
I92
tp336
a(I69
I92
tp337
a(I70
I92
tp338
a(I71
I92
tp339
a(I72
I92
tp340
a(I73
I92
tp341
a(I74
I92
tp342
a(I75
I92
tp343
a(I76
I92
tp344
a(I77
I92
tp345
a(I78
I92
tp346
a(I79
I92
tp347
a(I80
I92
tp348
a(I90
I92
tp349
a(I91
I92
tp350
a(I92
I92
tp351
a(I93
I92
tp352
a(I94
I92
tp353
a(I95
I92
tp354
a(I96
I92
tp355
a(I97
I92
tp356
a(I98
I92
tp357
a(I99
I92
tp358
a(I100
I92
tp359
a(I101
I92
tp360
a(I102
I92
tp361
a(I103
I92
tp362
a(I104
I92
tp363
a(I105
I92
tp364
a(I106
I92
tp365
a(I104
I93
tp366
a(I103
I93
tp367
a(I102
I93
tp368
a(I101
I93
tp369
a(I100
I93
tp370
a(I99
I93
tp371
a(I98
I93
tp372
a(I97
I93
tp373
a(I96
I93
tp374
a(I95
I93
tp375
a(I94
I93
tp376
a(I93
I93
tp377
a(I92
I93
tp378
a(I91
I93
tp379
a(I90
I93
tp380
a(I89
I93
tp381
a(I88
I93
tp382
a(I87
I93
tp383
a(I79
I93
tp384
a(I78
I93
tp385
a(I77
I93
tp386
a(I76
I93
tp387
a(I75
I93
tp388
a(I74
I93
tp389
a(I73
I93
tp390
a(I72
I93
tp391
a(I71
I93
tp392
a(I70
I93
tp393
a(I69
I93
tp394
a(I68
I93
tp395
a(I67
I93
tp396
a(I66
I93
tp397
a(I65
I93
tp398
a(I64
I93
tp399
a(I63
I93
tp400
a(I62
I93
tp401
a(I64
I94
tp402
a(I65
I94
tp403
a(I66
I94
tp404
a(I67
I94
tp405
a(I68
I94
tp406
a(I69
I94
tp407
a(I70
I94
tp408
a(I71
I94
tp409
a(I72
I94
tp410
a(I73
I94
tp411
a(I74
I94
tp412
a(I75
I94
tp413
a(I76
I94
tp414
a(I77
I94
tp415
a(I78
I94
tp416
a(I79
I94
tp417
a(I80
I94
tp418
a(I81
I94
tp419
a(I89
I94
tp420
a(I90
I94
tp421
a(I91
I94
tp422
a(I92
I94
tp423
a(I93
I94
tp424
a(I94
I94
tp425
a(I95
I94
tp426
a(I96
I94
tp427
a(I97
I94
tp428
a(I98
I94
tp429
a(I99
I94
tp430
a(I100
I94
tp431
a(I101
I94
tp432
a(I102
I94
tp433
a(I103
I94
tp434
a(I104
I94
tp435
a(I105
I94
tp436
a(I106
I94
tp437
a(I105
I95
tp438
a(I104
I95
tp439
a(I103
I95
tp440
a(I102
I95
tp441
a(I101
I95
tp442
a(I100
I95
tp443
a(I99
I95
tp444
a(I98
I95
tp445
a(I97
I95
tp446
a(I96
I95
tp447
a(I95
I95
tp448
a(I94
I95
tp449
a(I93
I95
tp450
a(I92
I95
tp451
a(I91
I95
tp452
a(I90
I95
tp453
a(I89
I95
tp454
a(I88
I95
tp455
a(I87
I95
tp456
a(I86
I95
tp457
a(I80
I95
tp458
a(I79
I95
tp459
a(I78
I95
tp460
a(I77
I95
tp461
a(I76
I95
tp462
a(I75
I95
tp463
a(I74
I95
tp464
a(I73
I95
tp465
a(I72
I95
tp466
a(I71
I95
tp467
a(I70
I95
tp468
a(I69
I95
tp469
a(I68
I95
tp470
a(I67
I95
tp471
a(I66
I95
tp472
a(I65
I95
tp473
a(I64
I95
tp474
a(I63
I95
tp475
a(I62
I95
tp476
a(I61
I95
tp477
a(I64
I96
tp478
a(I65
I96
tp479
a(I66
I96
tp480
a(I67
I96
tp481
a(I68
I96
tp482
a(I69
I96
tp483
a(I70
I96
tp484
a(I71
I96
tp485
a(I72
I96
tp486
a(I73
I96
tp487
a(I74
I96
tp488
a(I75
I96
tp489
a(I76
I96
tp490
a(I77
I96
tp491
a(I78
I96
tp492
a(I79
I96
tp493
a(I80
I96
tp494
a(I81
I96
tp495
a(I82
I96
tp496
a(I88
I96
tp497
a(I89
I96
tp498
a(I90
I96
tp499
a(I91
I96
tp500
a(I92
I96
tp501
a(I93
I96
tp502
a(I94
I96
tp503
a(I95
I96
tp504
a(I96
I96
tp505
a(I97
I96
tp506
a(I98
I96
tp507
a(I99
I96
tp508
a(I100
I96
tp509
a(I101
I96
tp510
a(I102
I96
tp511
a(I103
I96
tp512
a(I104
I96
tp513
a(I105
I96
tp514
a(I106
I96
tp515
a(I107
I96
tp516
a(I105
I97
tp517
a(I104
I97
tp518
a(I103
I97
tp519
a(I102
I97
tp520
a(I101
I97
tp521
a(I100
I97
tp522
a(I99
I97
tp523
a(I98
I97
tp524
a(I97
I97
tp525
a(I96
I97
tp526
a(I95
I97
tp527
a(I94
I97
tp528
a(I93
I97
tp529
a(I92
I97
tp530
a(I91
I97
tp531
a(I90
I97
tp532
a(I89
I97
tp533
a(I88
I97
tp534
a(I87
I97
tp535
a(I86
I97
tp536
a(I85
I97
tp537
a(I81
I97
tp538
a(I80
I97
tp539
a(I79
I97
tp540
a(I78
I97
tp541
a(I77
I97
tp542
a(I76
I97
tp543
a(I75
I97
tp544
a(I74
I97
tp545
a(I73
I97
tp546
a(I72
I97
tp547
a(I71
I97
tp548
a(I70
I97
tp549
a(I69
I97
tp550
a(I68
I97
tp551
a(I67
I97
tp552
a(I66
I97
tp553
a(I65
I97
tp554
a(I64
I97
tp555
a(I63
I97
tp556
a(I62
I97
tp557
a(I61
I97
tp558
a(I63
I98
tp559
a(I64
I98
tp560
a(I65
I98
tp561
a(I66
I98
tp562
a(I67
I98
tp563
a(I68
I98
tp564
a(I69
I98
tp565
a(I70
I98
tp566
a(I71
I98
tp567
a(I72
I98
tp568
a(I73
I98
tp569
a(I74
I98
tp570
a(I75
I98
tp571
a(I76
I98
tp572
a(I77
I98
tp573
a(I78
I98
tp574
a(I79
I98
tp575
a(I80
I98
tp576
a(I81
I98
tp577
a(I82
I98
tp578
a(I83
I98
tp579
a(I88
I98
tp580
a(I89
I98
tp581
a(I90
I98
tp582
a(I91
I98
tp583
a(I92
I98
tp584
a(I93
I98
tp585
a(I94
I98
tp586
a(I95
I98
tp587
a(I96
I98
tp588
a(I97
I98
tp589
a(I98
I98
tp590
a(I99
I98
tp591
a(I100
I98
tp592
a(I101
I98
tp593
a(I102
I98
tp594
a(I103
I98
tp595
a(I104
I98
tp596
a(I105
I98
tp597
a(I106
I98
tp598
a(I107
I98
tp599
a(I106
I99
tp600
a(I105
I99
tp601
a(I104
I99
tp602
a(I103
I99
tp603
a(I102
I99
tp604
a(I101
I99
tp605
a(I100
I99
tp606
a(I99
I99
tp607
a(I98
I99
tp608
a(I97
I99
tp609
a(I96
I99
tp610
a(I95
I99
tp611
a(I94
I99
tp612
a(I93
I99
tp613
a(I92
I99
tp614
a(I91
I99
tp615
a(I90
I99
tp616
a(I89
I99
tp617
a(I88
I99
tp618
a(I87
I99
tp619
a(I86
I99
tp620
a(I85
I99
tp621
a(I82
I99
tp622
a(I81
I99
tp623
a(I80
I99
tp624
a(I79
I99
tp625
a(I78
I99
tp626
a(I77
I99
tp627
a(I76
I99
tp628
a(I75
I99
tp629
a(I74
I99
tp630
a(I73
I99
tp631
a(I72
I99
tp632
a(I71
I99
tp633
a(I70
I99
tp634
a(I69
I99
tp635
a(I68
I99
tp636
a(I67
I99
tp637
a(I66
I99
tp638
a(I65
I99
tp639
a(I64
I99
tp640
a(I63
I99
tp641
a(I62
I99
tp642
a(I61
I99
tp643
a(I63
I100
tp644
a(I64
I100
tp645
a(I65
I100
tp646
a(I66
I100
tp647
a(I67
I100
tp648
a(I68
I100
tp649
a(I69
I100
tp650
a(I70
I100
tp651
a(I71
I100
tp652
a(I72
I100
tp653
a(I73
I100
tp654
a(I74
I100
tp655
a(I75
I100
tp656
a(I76
I100
tp657
a(I77
I100
tp658
a(I78
I100
tp659
a(I79
I100
tp660
a(I80
I100
tp661
a(I81
I100
tp662
a(I82
I100
tp663
a(I83
I100
tp664
a(I84
I100
tp665
a(I86
I100
tp666
a(I87
I100
tp667
a(I88
I100
tp668
a(I89
I100
tp669
a(I90
I100
tp670
a(I91
I100
tp671
a(I92
I100
tp672
a(I93
I100
tp673
a(I94
I100
tp674
a(I95
I100
tp675
a(I96
I100
tp676
a(I97
I100
tp677
a(I98
I100
tp678
a(I99
I100
tp679
a(I100
I100
tp680
a(I101
I100
tp681
a(I102
I100
tp682
a(I103
I100
tp683
a(I104
I100
tp684
a(I105
I100
tp685
a(I106
I100
tp686
a(I107
I100
tp687
a(I108
I100
tp688
a(I106
I101
tp689
a(I105
I101
tp690
a(I104
I101
tp691
a(I103
I101
tp692
a(I102
I101
tp693
a(I101
I101
tp694
a(I100
I101
tp695
a(I99
I101
tp696
a(I98
I101
tp697
a(I97
I101
tp698
a(I96
I101
tp699
a(I95
I101
tp700
a(I94
I101
tp701
a(I93
I101
tp702
a(I92
I101
tp703
a(I91
I101
tp704
a(I90
I101
tp705
a(I89
I101
tp706
a(I88
I101
tp707
a(I87
I101
tp708
a(I86
I101
tp709
a(I85
I101
tp710
a(I84
I101
tp711
a(I83
I101
tp712
a(I82
I101
tp713
a(I81
I101
tp714
a(I80
I101
tp715
a(I79
I101
tp716
a(I78
I101
tp717
a(I77
I101
tp718
a(I76
I101
tp719
a(I75
I101
tp720
a(I74
I101
tp721
a(I73
I101
tp722
a(I72
I101
tp723
a(I71
I101
tp724
a(I70
I101
tp725
a(I69
I101
tp726
a(I68
I101
tp727
a(I67
I101
tp728
a(I66
I101
tp729
a(I65
I101
tp730
a(I64
I101
tp731
a(I63
I101
tp732
a(I62
I101
tp733
a(I61
I101
tp734
a(I60
I102
tp735
a(I63
I102
tp736
a(I64
I102
tp737
a(I65
I102
tp738
a(I66
I102
tp739
a(I67
I102
tp740
a(I68
I102
tp741
a(I69
I102
tp742
a(I70
I102
tp743
a(I71
I102
tp744
a(I72
I102
tp745
a(I73
I102
tp746
a(I75
I102
tp747
a(I76
I102
tp748
a(I77
I102
tp749
a(I78
I102
tp750
a(I79
I102
tp751
a(I80
I102
tp752
a(I81
I102
tp753
a(I82
I102
tp754
a(I83
I102
tp755
a(I84
I102
tp756
a(I85
I102
tp757
a(I86
I102
tp758
a(I87
I102
tp759
a(I88
I102
tp760
a(I89
I102
tp761
a(I90
I102
tp762
a(I91
I102
tp763
a(I92
I102
tp764
a(I93
I102
tp765
a(I94
I102
tp766
a(I95
I102
tp767
a(I96
I102
tp768
a(I97
I102
tp769
a(I98
I102
tp770
a(I99
I102
tp771
a(I100
I102
tp772
a(I101
I102
tp773
a(I102
I102
tp774
a(I103
I102
tp775
a(I104
I102
tp776
a(I105
I102
tp777
a(I106
I102
tp778
a(I107
I102
tp779
a(I108
I102
tp780
a(I107
I103
tp781
a(I106
I103
tp782
a(I105
I103
tp783
a(I104
I103
tp784
a(I103
I103
tp785
a(I102
I103
tp786
a(I101
I103
tp787
a(I100
I103
tp788
a(I99
I103
tp789
a(I98
I103
tp790
a(I97
I103
tp791
a(I96
I103
tp792
a(I95
I103
tp793
a(I94
I103
tp794
a(I93
I103
tp795
a(I92
I103
tp796
a(I91
I103
tp797
a(I90
I103
tp798
a(I89
I103
tp799
a(I88
I103
tp800
a(I87
I103
tp801
a(I86
I103
tp802
a(I85
I103
tp803
a(I84
I103
tp804
a(I83
I103
tp805
a(I82
I103
tp806
a(I81
I103
tp807
a(I80
I103
tp808
a(I79
I103
tp809
a(I78
I103
tp810
a(I77
I103
tp811
a(I76
I103
tp812
a(I75
I103
tp813
a(I74
I103
tp814
a(I71
I103
tp815
a(I70
I103
tp816
a(I69
I103
tp817
a(I68
I103
tp818
a(I67
I103
tp819
a(I66
I103
tp820
a(I65
I103
tp821
a(I64
I103
tp822
a(I63
I103
tp823
a(I62
I103
tp824
a(I61
I103
tp825
a(I60
I104
tp826
a(I62
I104
tp827
a(I63
I104
tp828
a(I64
I104
tp829
a(I65
I104
tp830
a(I66
I104
tp831
a(I67
I104
tp832
a(I68
I104
tp833
a(I69
I104
tp834
a(I70
I104
tp835
a(I71
I104
tp836
a(I72
I104
tp837
a(I73
I104
tp838
a(I77
I104
tp839
a(I78
I104
tp840
a(I79
I104
tp841
a(I80
I104
tp842
a(I81
I104
tp843
a(I82
I104
tp844
a(I83
I104
tp845
a(I84
I104
tp846
a(I85
I104
tp847
a(I86
I104
tp848
a(I87
I104
tp849
a(I88
I104
tp850
a(I89
I104
tp851
a(I90
I104
tp852
a(I91
I104
tp853
a(I92
I104
tp854
a(I93
I104
tp855
a(I97
I104
tp856
a(I98
I104
tp857
a(I99
I104
tp858
a(I100
I104
tp859
a(I101
I104
tp860
a(I102
I104
tp861
a(I103
I104
tp862
a(I104
I104
tp863
a(I105
I104
tp864
a(I106
I104
tp865
a(I107
I104
tp866
a(I108
I104
tp867
a(I109
I104
tp868
a(I107
I105
tp869
a(I106
I105
tp870
a(I105
I105
tp871
a(I104
I105
tp872
a(I103
I105
tp873
a(I102
I105
tp874
a(I101
I105
tp875
a(I100
I105
tp876
a(I99
I105
tp877
a(I98
I105
tp878
a(I97
I105
tp879
a(I96
I105
tp880
a(I95
I105
tp881
a(I90
I105
tp882
a(I89
I105
tp883
a(I88
I105
tp884
a(I87
I105
tp885
a(I86
I105
tp886
a(I85
I105
tp887
a(I84
I105
tp888
a(I83
I105
tp889
a(I82
I105
tp890
a(I81
I105
tp891
a(I80
I105
tp892
a(I79
I105
tp893
a(I78
I105
tp894
a(I77
I105
tp895
a(I76
I105
tp896
a(I71
I105
tp897
a(I70
I105
tp898
a(I69
I105
tp899
a(I68
I105
tp900
a(I67
I105
tp901
a(I66
I105
tp902
a(I65
I105
tp903
a(I64
I105
tp904
a(I63
I105
tp905
a(I62
I105
tp906
a(I61
I105
tp907
a(I60
I106
tp908
a(I62
I106
tp909
a(I63
I106
tp910
a(I64
I106
tp911
a(I65
I106
tp912
a(I66
I106
tp913
a(I67
I106
tp914
a(I68
I106
tp915
a(I69
I106
tp916
a(I70
I106
tp917
a(I71
I106
tp918
a(I72
I106
tp919
a(I79
I106
tp920
a(I80
I106
tp921
a(I81
I106
tp922
a(I82
I106
tp923
a(I83
I106
tp924
a(I84
I106
tp925
a(I85
I106
tp926
a(I86
I106
tp927
a(I87
I106
tp928
a(I88
I106
tp929
a(I89
I106
tp930
a(I90
I106
tp931
a(I91
I106
tp932
a(I92
I106
tp933
a(I98
I106
tp934
a(I99
I106
tp935
a(I100
I106
tp936
a(I101
I106
tp937
a(I102
I106
tp938
a(I103
I106
tp939
a(I104
I106
tp940
a(I105
I106
tp941
a(I106
I106
tp942
a(I107
I106
tp943
a(I108
I106
tp944
a(I109
I106
tp945
a(I110
I106
tp946
a(I108
I107
tp947
a(I107
I107
tp948
a(I106
I107
tp949
a(I105
I107
tp950
a(I104
I107
tp951
a(I103
I107
tp952
a(I102
I107
tp953
a(I101
I107
tp954
a(I100
I107
tp955
a(I99
I107
tp956
a(I98
I107
tp957
a(I97
I107
tp958
a(I96
I107
tp959
a(I89
I107
tp960
a(I88
I107
tp961
a(I87
I107
tp962
a(I86
I107
tp963
a(I85
I107
tp964
a(I84
I107
tp965
a(I83
I107
tp966
a(I82
I107
tp967
a(I81
I107
tp968
a(I80
I107
tp969
a(I79
I107
tp970
a(I78
I107
tp971
a(I77
I107
tp972
a(I70
I107
tp973
a(I69
I107
tp974
a(I68
I107
tp975
a(I67
I107
tp976
a(I66
I107
tp977
a(I65
I107
tp978
a(I64
I107
tp979
a(I63
I107
tp980
a(I62
I107
tp981
a(I61
I107
tp982
a(I60
I108
tp983
a(I62
I108
tp984
a(I63
I108
tp985
a(I64
I108
tp986
a(I65
I108
tp987
a(I66
I108
tp988
a(I67
I108
tp989
a(I68
I108
tp990
a(I69
I108
tp991
a(I70
I108
tp992
a(I71
I108
tp993
a(I72
I108
tp994
a(I80
I108
tp995
a(I81
I108
tp996
a(I82
I108
tp997
a(I83
I108
tp998
a(I84
I108
tp999
a(I85
I108
tp1000
a(I86
I108
tp1001
a(I87
I108
tp1002
a(I88
I108
tp1003
a(I89
I108
tp1004
a(I90
I108
tp1005
a(I98
I108
tp1006
a(I99
I108
tp1007
a(I100
I108
tp1008
a(I101
I108
tp1009
a(I102
I108
tp1010
a(I103
I108
tp1011
a(I104
I108
tp1012
a(I105
I108
tp1013
a(I106
I108
tp1014
a(I107
I108
tp1015
a(I108
I108
tp1016
a(I109
I108
tp1017
a(I110
I108
tp1018
a(I109
I109
tp1019
a(I108
I109
tp1020
a(I107
I109
tp1021
a(I106
I109
tp1022
a(I105
I109
tp1023
a(I104
I109
tp1024
a(I103
I109
tp1025
a(I102
I109
tp1026
a(I101
I109
tp1027
a(I100
I109
tp1028
a(I99
I109
tp1029
a(I98
I109
tp1030
a(I97
I109
tp1031
a(I87
I109
tp1032
a(I86
I109
tp1033
a(I85
I109
tp1034
a(I84
I109
tp1035
a(I83
I109
tp1036
a(I82
I109
tp1037
a(I81
I109
tp1038
a(I80
I109
tp1039
a(I79
I109
tp1040
a(I70
I109
tp1041
a(I69
I109
tp1042
a(I68
I109
tp1043
a(I67
I109
tp1044
a(I66
I109
tp1045
a(I65
I109
tp1046
a(I64
I109
tp1047
a(I63
I109
tp1048
a(I62
I109
tp1049
a(I61
I109
tp1050
a(I60
I110
tp1051
a(I61
I110
tp1052
a(I62
I110
tp1053
a(I63
I110
tp1054
a(I64
I110
tp1055
a(I65
I110
tp1056
a(I66
I110
tp1057
a(I67
I110
tp1058
a(I68
I110
tp1059
a(I69
I110
tp1060
a(I70
I110
tp1061
a(I71
I110
tp1062
a(I72
I110
tp1063
a(I82
I110
tp1064
a(I83
I110
tp1065
a(I84
I110
tp1066
a(I85
I110
tp1067
a(I86
I110
tp1068
a(I87
I110
tp1069
a(I88
I110
tp1070
a(I89
I110
tp1071
a(I100
I110
tp1072
a(I101
I110
tp1073
a(I102
I110
tp1074
a(I103
I110
tp1075
a(I104
I110
tp1076
a(I105
I110
tp1077
a(I106
I110
tp1078
a(I107
I110
tp1079
a(I108
I110
tp1080
a(I109
I110
tp1081
a(I110
I110
tp1082
a(I111
I110
tp1083
a(I109
I111
tp1084
a(I108
I111
tp1085
a(I107
I111
tp1086
a(I106
I111
tp1087
a(I105
I111
tp1088
a(I104
I111
tp1089
a(I103
I111
tp1090
a(I102
I111
tp1091
a(I101
I111
tp1092
a(I100
I111
tp1093
a(I99
I111
tp1094
a(I98
I111
tp1095
a(I85
I111
tp1096
a(I84
I111
tp1097
a(I83
I111
tp1098
a(I82
I111
tp1099
a(I81
I111
tp1100
a(I69
I111
tp1101
a(I68
I111
tp1102
a(I67
I111
tp1103
a(I66
I111
tp1104
a(I65
I111
tp1105
a(I64
I111
tp1106
a(I63
I111
tp1107
a(I62
I111
tp1108
a(I61
I111
tp1109
a(I60
I112
tp1110
a(I61
I112
tp1111
a(I62
I112
tp1112
a(I63
I112
tp1113
a(I64
I112
tp1114
a(I65
I112
tp1115
a(I66
I112
tp1116
a(I67
I112
tp1117
a(I68
I112
tp1118
a(I69
I112
tp1119
a(I70
I112
tp1120
a(I71
I112
tp1121
a(I84
I112
tp1122
a(I85
I112
tp1123
a(I86
I112
tp1124
a(I87
I112
tp1125
a(I101
I112
tp1126
a(I102
I112
tp1127
a(I103
I112
tp1128
a(I104
I112
tp1129
a(I105
I112
tp1130
a(I106
I112
tp1131
a(I107
I112
tp1132
a(I108
I112
tp1133
a(I109
I112
tp1134
a(I110
I112
tp1135
a(I111
I112
tp1136
a(I112
I112
tp1137
a(I110
I113
tp1138
a(I109
I113
tp1139
a(I108
I113
tp1140
a(I107
I113
tp1141
a(I106
I113
tp1142
a(I105
I113
tp1143
a(I104
I113
tp1144
a(I103
I113
tp1145
a(I102
I113
tp1146
a(I101
I113
tp1147
a(I100
I113
tp1148
a(I99
I113
tp1149
a(I83
I113
tp1150
a(I69
I113
tp1151
a(I68
I113
tp1152
a(I67
I113
tp1153
a(I66
I113
tp1154
a(I65
I113
tp1155
a(I64
I113
tp1156
a(I63
I113
tp1157
a(I62
I113
tp1158
a(I61
I113
tp1159
a(I60
I114
tp1160
a(I61
I114
tp1161
a(I62
I114
tp1162
a(I63
I114
tp1163
a(I64
I114
tp1164
a(I65
I114
tp1165
a(I66
I114
tp1166
a(I67
I114
tp1167
a(I68
I114
tp1168
a(I69
I114
tp1169
a(I70
I114
tp1170
a(I71
I114
tp1171
a(I101
I114
tp1172
a(I102
I114
tp1173
a(I103
I114
tp1174
a(I104
I114
tp1175
a(I105
I114
tp1176
a(I106
I114
tp1177
a(I107
I114
tp1178
a(I108
I114
tp1179
a(I109
I114
tp1180
a(I110
I114
tp1181
a(I111
I114
tp1182
a(I112
I114
tp1183
a(I113
I114
tp1184
a(I110
I115
tp1185
a(I109
I115
tp1186
a(I108
I115
tp1187
a(I107
I115
tp1188
a(I106
I115
tp1189
a(I105
I115
tp1190
a(I104
I115
tp1191
a(I103
I115
tp1192
a(I102
I115
tp1193
a(I101
I115
tp1194
a(I100
I115
tp1195
a(I68
I115
tp1196
a(I67
I115
tp1197
a(I66
I115
tp1198
a(I65
I115
tp1199
a(I64
I115
tp1200
a(I63
I115
tp1201
a(I62
I115
tp1202
a(I61
I115
tp1203
a(I60
I116
tp1204
a(I61
I116
tp1205
a(I62
I116
tp1206
a(I63
I116
tp1207
a(I64
I116
tp1208
a(I65
I116
tp1209
a(I66
I116
tp1210
a(I67
I116
tp1211
a(I68
I116
tp1212
a(I69
I116
tp1213
a(I70
I116
tp1214
a(I103
I116
tp1215
a(I104
I116
tp1216
a(I105
I116
tp1217
a(I106
I116
tp1218
a(I107
I116
tp1219
a(I108
I116
tp1220
a(I109
I116
tp1221
a(I110
I116
tp1222
a(I111
I116
tp1223
a(I112
I116
tp1224
a(I113
I116
tp1225
a(I111
I117
tp1226
a(I110
I117
tp1227
a(I109
I117
tp1228
a(I108
I117
tp1229
a(I107
I117
tp1230
a(I106
I117
tp1231
a(I105
I117
tp1232
a(I104
I117
tp1233
a(I103
I117
tp1234
a(I102
I117
tp1235
a(I68
I117
tp1236
a(I67
I117
tp1237
a(I66
I117
tp1238
a(I65
I117
tp1239
a(I64
I117
tp1240
a(I63
I117
tp1241
a(I62
I117
tp1242
a(I61
I117
tp1243
a(I60
I118
tp1244
a(I61
I118
tp1245
a(I62
I118
tp1246
a(I63
I118
tp1247
a(I64
I118
tp1248
a(I65
I118
tp1249
a(I66
I118
tp1250
a(I67
I118
tp1251
a(I68
I118
tp1252
a(I69
I118
tp1253
a(I70
I118
tp1254
a(I104
I118
tp1255
a(I105
I118
tp1256
a(I106
I118
tp1257
a(I107
I118
tp1258
a(I108
I118
tp1259
a(I109
I118
tp1260
a(I110
I118
tp1261
a(I111
I118
tp1262
a(I112
I118
tp1263
a(I113
I118
tp1264
a(I114
I118
tp1265
a(I111
I119
tp1266
a(I110
I119
tp1267
a(I109
I119
tp1268
a(I108
I119
tp1269
a(I107
I119
tp1270
a(I106
I119
tp1271
a(I105
I119
tp1272
a(I104
I119
tp1273
a(I103
I119
tp1274
a(I67
I119
tp1275
a(I66
I119
tp1276
a(I65
I119
tp1277
a(I64
I119
tp1278
a(I63
I119
tp1279
a(I62
I119
tp1280
a(I61
I119
tp1281
a(I60
I120
tp1282
a(I61
I120
tp1283
a(I62
I120
tp1284
a(I63
I120
tp1285
a(I64
I120
tp1286
a(I65
I120
tp1287
a(I66
I120
tp1288
a(I67
I120
tp1289
a(I68
I120
tp1290
a(I69
I120
tp1291
a(I70
I120
tp1292
a(I105
I120
tp1293
a(I106
I120
tp1294
a(I107
I120
tp1295
a(I108
I120
tp1296
a(I109
I120
tp1297
a(I110
I120
tp1298
a(I111
I120
tp1299
a(I112
I120
tp1300
a(I107
I119
tp1301
a(I106
I119
tp1302
a(I105
I119
tp1303
a(I104
I119
tp1304
a(I67
I119
tp1305
aa.