(lp0
(lp1
F30.706233315551316
aF31.13609561556665
aF31.399838944487804
aF31.13609561556665
aF31.57816423957502
aF31.399838944487804
aF30.706233315551316
aF31.57816423957502
aF31.48874912363562
aF32.50106089601583
aF31.13609561556665
aF31.13609561556665
aF27.859955166252636
aF31.22351638404374
aF31.049163008189556
aF31.13609561556665
aF30.53759354312183
aF31.13609561556665
aF31.22351638404374
aF31.48874912363562
aF31.049163008189556
aF27.31255937416803
aF30.288078665750092
aF31.399838944487804
aF31.399838944487804
aF26.85093523428906
aF31.399838944487804
aF31.48874912363562
aF30.791253603630047
aF30.876746012090063
aF30.876746012090063
aF30.876746012090063
aF29.4850298385104
aF30.876746012090063
aF30.706233315551316
aF30.042608187298807
aF30.791253603630047
aF30.962714484429938
aF30.706233315551316
aF31.13609561556665
aF30.791253603630047
aF30.791253603630047
aF30.876746012090063
aF30.706233315551316
aF31.13609561556665
aF31.48874912363562
aF31.049163008189556
aF31.049163008189556
aF31.049163008189556
aF31.13609561556665
aF31.668088605994473
aF30.205810677644397
aF31.049163008189556
aF31.13609561556665
aF31.22351638404374
aF27.31255937416803
aF27.790333753494824
aF30.042608187298807
aF27.379804591056413
aF27.379804591056413
aF27.046849477920713
aF32.98303850119052
aF32.78854216667119
aF32.032966589815295
aF32.78854216667119
aF32.98303850119052
aF32.885502756653885
aF32.98303850119052
aF32.69215165879007
aF31.940961088407867
aF32.78854216667119
aF32.69215165879007
aF32.885502756653885
aF32.78854216667119
aF33.17985604642032
aF34.95270986373049
aF34.30576412650896
aF33.47952635388104
aF34.30576412650896
aF34.30576412650896
aF34.30576412650896
aF34.411920154373824
aF34.20026103782835
aF34.20026103782835
aF29.881159791016643
aF33.88760971661696
aF34.518735201618064
aF34.30576412650896
aF24.432270067290094
aF22.10151926729199
aF24.2194285435518
aF24.272290509328982
aF24.325383735712993
aF24.166796330696304
aF24.272290509328982
aF24.166796330696304
aF23.85574506460822
aF24.486066254539114
aF24.703641076266496
aF24.758640281625674
aF23.7032028912729
aF22.64149867783362
aF22.64149867783362
aF22.504045219032726
aF22.323349196930486
aF22.323349196930486
aF22.18972008342186
aF22.014016845235883
aF21.84107426375334
aF22.18972008342186
aF19.676921868287344
aF22.18972008342186
aF21.54487453202822
aF21.216047814079424
aF20.818865231550785
aF21.175648883509826
aF21.175648883509826
aF19.538635288693797
aF20.818865231550785
aF21.338174807296596
aF21.338174807296596
aF21.379196852682504
aF21.175648883509826
aF21.420376929353292
aF20.975940256932013
aF21.015580058794672
aF20.85791303082206
aF20.897107581202473
aF20.975940256932013
aF20.85791303082206
aF18.779742625179935
aF20.511668433660986
aF20.70259414450272
aF18.62250143846678
aF20.85791303082206
aF21.175648883509826
aF21.1354035132799
aF21.297309885254354
aF21.175648883509826
aF21.256601185556487
aF21.338174807296596
aF21.297309885254354
aF21.338174807296596
aF20.93644971153897
aF21.297309885254354
aF21.461715952259095
aF22.18972008342186
aF21.5866959544502
aF22.145531854558953
aF21.670827782796756
aF22.27862768839715
aF22.234085007385584
aF19.78192825006813
aF22.145531854558953
aF22.234085007385584
aF22.323349196930486
aF23.112055857924418
aF24.166796330696304
aF23.753833061775843
aF24.11439237615458
aF24.11439237615458
aF24.11439237615458
aF24.325383735712993
aF24.11439237615458
aF21.628680054364022
aF23.753833061775843
aF29.252353460457552
aF29.407060859374095
aF29.801084564518085
aF29.023320586819835
aF29.801084564518085
aF29.801084564518085
aF26.217902714895857
aF29.801084564518085
aF29.881159791016643
aF26.530643405104836
aF35.85423950457114
aF35.739013175062894
aF32.98303850119052
aF32.78854216667119
aF32.50106089601583
aF32.50106089601583
aF32.98303850119052
aF33.58062299117415
aF35.285420016778595
aF36.925710809672886
aF36.56150834616634
aF33.99118972893073
aF32.50106089601583
aF32.032966589815295
aF31.399838944487804
aF31.57816423957502
aF32.12550366358566
aF32.885502756653885
aF33.99118972893073
aF33.27914829742079
aF28.79784630141215
aF31.399838944487804
aF30.370796004845925
aF30.791253603630047
aF31.13609561556665
aF32.12550366358566
aF32.312191062622546
aF35.739013175062894
aF35.62452508876756
aF33.78465905707679
aF28.28512100306336
aF30.288078665750092
aF30.706233315551316
aF30.042608187298807
aF29.252353460457552
aF32.40635079011877
aF33.99118972893073
aF33.88760971661696
aF31.668088605994473
aF31.399838944487804
aF30.876746012090063
aF30.706233315551316
aF31.48874912363562
aF32.50106089601583
aF33.99118972893073
aF37.172570459775194
aF34.73436705484322
aF33.17985604642032
aF31.75852658585873
aF31.399838944487804
aF30.370796004845925
aF27.859955166252636
aF32.50106089601583
aF33.88760971661696
aF35.17381507548624
aF33.68233203175638
aF31.48874912363562
aF31.049163008189556
aF31.940961088407867
aF31.668088605994473
aF33.78465905707679
aF35.51076817356807
aF38.59155007780303
aF31.22351638404374
aF34.73436705484322
aF33.27914829742079
aF28.79784630141215
aF32.78854216667119
aF33.379036605439495
aF34.62621542416389
aF73.56718151724357
aF70.7586234980619
aF45.36024107983404
aF36.68210827421235
aF29.881159791016643
aF34.411920154373824
aF35.62452508876756
aF37.67632594262979
aF42.58127855489816
aF43.076095932966545
aF38.59155007780303
aF36.68210827421235
aF34.411920154373824
aF69.0024298290681
aF68.15662316840276
aF181.81859798965397
aF165.57599652192556
aF75.05676157976723
aF147.9529985258822
aF132.13170539283016
aF42.41885601204744
aF38.32555151645486
aF32.885502756653885
aF33.47952635388104
aF144.11821117729085
aF57.87089750608336
aF37.04872942621957
aF34.095404882703036
aF31.399838944487804
aF34.84319640460254
aF36.441698813357824
aF37.67632594262979
aF38.45809085237561
aF36.204420054980474
aF33.99118972893073
aF33.27914829742079
aF32.78854216667119
aF33.379036605439495
aF29.881159791016643
aF35.62452508876756
aF35.397735447391106
aF33.27914829742079
aF28.213361152577257
aF31.940961088407867
aF32.50106089601583
aF33.17985604642032
aF35.397735447391106
aF36.441698813357824
aF34.20026103782835
aF30.876746012090063
aF31.13609561556665
aF31.57816423957502
aF28.429741417657475
aF29.961666499624428
aF32.59632622003051
aF34.73436705484322
aF33.17985604642032
aF32.12550366358566
aF31.57816423957502
aF30.962714484429938
aF31.049163008189556
aF31.22351638404374
aF31.13609561556665
aF30.288078665750092
aF31.48874912363562
aF32.12550366358566
aF32.59632622003051
aF33.17985604642032
aF34.73436705484322
aF35.51076817356807
aF21.055369964912387
aF31.13609561556665
aF32.312191062622546
aF28.357246822499594
aF31.13609561556665
aF31.48874912363562
aF31.22351638404374
aF28.213361152577257
aF31.399838944487804
aF31.48874912363562
aF30.962714484429938
aF31.48874912363562
aF31.399838944487804
aF30.621681247790256
aF31.668088605994473
aF30.288078665750092
aF31.48874912363562
aF31.13609561556665
aF31.13609561556665
aF30.706233315551316
aF31.13609561556665
aF31.399838944487804
aF31.48874912363562
aF31.48874912363562
aF31.049163008189556
aF31.049163008189556
aF31.48874912363562
aF31.48874912363562
aF28.872614130722635
aF32.59632622003051
aF31.22351638404374
aF31.13609561556665
aF31.13609561556665
aF31.13609561556665
aF31.13609561556665
aF31.48874912363562
aF31.57816423957502
aF31.13609561556665
aF31.13609561556665
aF31.13609561556665
aF30.370796004845925
aF27.31255937416803
aF31.48874912363562
aF31.13609561556665
aF29.329503148508984
aF30.706233315551316
aF30.876746012090063
aF28.213361152577257
aF29.961666499624428
aF30.962714484429938
aF30.791253603630047
aF30.042608187298807
aF30.791253603630047
aF30.876746012090063
aF30.876746012090063
aF31.48874912363562
aF31.22351638404374
aF31.22351638404374
aF31.13609561556665
aF31.22351638404374
aF31.049163008189556
aF31.13609561556665
aF31.13609561556665
aF31.049163008189556
aF31.13609561556665
aF31.13609561556665
aF31.22351638404374
aF31.13609561556665
aF32.78854216667119
aF32.50106089601583
aF31.311429437025645
aF32.98303850119052
aF28.947771209974086
aF32.78854216667119
aF32.78854216667119
aF32.98303850119052
aF32.78854216667119
aF32.885502756653885
aF32.50106089601583
aF30.288078665750092
aF34.30576412650896
aF34.30576412650896
aF34.20026103782835
aF34.411920154373824
aF30.962714484429938
aF33.78465905707679
aF33.88760971661696
aF24.432270067290094
aF24.432270067290094
aF24.325383735712993
aF23.45325537430541
aF21.338174807296596
aF22.504045219032726
aF22.458597522111887
aF22.368250612072163
aF22.27862768839715
aF22.18972008342186
aF22.27862768839715
aF21.7982623613288
aF21.297309885254354
aF21.175648883509826
aF21.1354035132799
aF21.216047814079424
aF21.175648883509826
aF20.511668433660986
aF19.267812453869233
aF21.297309885254354
aF21.256601185556487
aF21.216047814079424
aF21.1354035132799
aF20.897107581202473
aF20.897107581202473
aF20.897107581202473
aF20.975940256932013
aF20.511668433660986
aF20.85791303082206
aF20.897107581202473
aF20.741206601865553
aF20.741206601865553
aF20.741206601865553
aF21.1354035132799
aF21.175648883509826
aF21.1354035132799
aF21.175648883509826
aF21.1354035132799
aF21.379196852682504
aF20.93644971153897
aF21.338174807296596
aF21.297309885254354
aF21.297309885254354
aF22.057681276474543
aF21.97052494489924
aF22.458597522111887
aF22.413333021608196
aF22.368250612072163
aF22.18972008342186
aF165.57599652192556
aF35.06291390310869
aF36.925710809672886
aF36.56150834616634
aF30.791253603630047
aF34.411920154373824
aF32.69215165879007
aF33.27914829742079
aF32.59632622003051
aF32.12550366358566
aF30.621681247790256
aF31.399838944487804
aF31.13609561556665
aF31.049163008189556
aF31.13609561556665
aF31.049163008189556
aF31.48874912363562
aF31.311429437025645
aF30.962714484429938
aF32.032966589815295
aF32.69215165879007
aF33.08115453309044
aF33.68233203175638
aF34.411920154373824
aF35.97021124090935
aF35.285420016778595
aF24.869376666615977
aF31.48874912363562
aF30.962714484429938
aF23.552599141484013
aF31.668088605994473
aF31.049163008189556
aF31.22351638404374
aF27.721059438094585
aF31.48874912363562
aF30.791253603630047
aF31.48874912363562
aF31.48874912363562
aF31.049163008189556
aF30.791253603630047
aF27.859955166252636
aF31.13609561556665
aF31.48874912363562
aF31.48874912363562
aF31.399838944487804
aF30.205810677644397
aF31.75852658585873
aF31.399838944487804
aF31.668088605994473
aF31.049163008189556
aF31.13609561556665
aF31.13609561556665
aF28.357246822499594
aF31.57816423957502
aF27.046849477920713
aF31.049163008189556
aF31.22351638404374
aF26.981227842536317
aF31.22351638404374
aF31.48874912363562
aF31.48874912363562
aF31.399838944487804
aF31.57816423957502
aF28.575848306470597
aF31.399838944487804
aF30.706233315551316
aF31.311429437025645
aF23.064121804300452
aF31.13609561556665
aF31.13609561556665
aF31.22351638404374
aF31.22351638404374
aF31.049163008189556
aF31.13609561556665
aF30.706233315551316
aF31.13609561556665
aF31.311429437025645
aF31.13609561556665
aF31.13609561556665
aF31.48874912363562
aF27.58354176815566
aF31.049163008189556
aF31.311429437025645
aF26.279859609853023
aF27.31255937416803
aF31.049163008189556
aF31.13609561556665
aF31.049163008189556
aF32.50106089601583
aF30.706233315551316
aF30.791253603630047
aF28.575848306470597
aF27.379804591056413
aF30.876746012090063
aF30.962714484429938
aF30.791253603630047
aF30.791253603630047
aF30.706233315551316
aF30.962714484429938
aF30.621681247790256
aF30.706233315551316
aF30.12398838888775
aF30.962714484429938
aF30.962714484429938
aF30.706233315551316
aF30.706233315551316
aF30.876746012090063
aF30.706233315551316
aF32.50106089601583
aF31.13609561556665
aF31.22351638404374
aF31.13609561556665
aF31.311429437025645
aF31.13609561556665
aF31.13609561556665
aF31.049163008189556
aF31.049163008189556
aF31.049163008189556
aF31.311429437025645
aF30.621681247790256
aF31.13609561556665
aF31.22351638404374
aF27.379804591056413
aF31.13609561556665
aF31.13609561556665
aF30.370796004845925
aF31.13609561556665
aF31.13609561556665
aF32.50106089601583
aF32.78854216667119
aF32.98303850119052
aF32.78854216667119
aF32.69215165879007
aF28.502607624083847
aF32.885502756653885
aF32.78854216667119
aF32.78854216667119
aF32.98303850119052
aF32.98303850119052
aF32.885502756653885
aF32.885502756653885
aF32.032966589815295
aF32.885502756653885
aF31.48874912363562
aF32.98303850119052
aF31.940961088407867
aF32.885502756653885
aF33.58062299117415
aF35.285420016778595
aF34.30576412650896
aF34.30576412650896
aF181.81859798965397
aF30.370796004845925
aF31.13609561556665
aF31.22351638404374
aF31.48874912363562
aF31.668088605994473
aF31.75852658585873
aF32.50106089601583
aF32.50106089601583
aF33.379036605439495
aF33.379036605439495
aF35.397735447391106
aF38.32555151645486
aF28.723464705876278
aF21.7982623613288
aF21.379196852682504
aF21.755617966537525
aF22.10151926729199
aF21.7982623613288
aF21.420376929353292
aF21.297309885254354
aF21.1354035132799
aF21.256601185556487
aF21.175648883509826
aF21.015580058794672
aF21.015580058794672
aF21.1354035132799
aF21.055369964912387
aF20.897107581202473
aF20.43628055974343
aF20.779963360736794
aF20.779963360736794
aF20.779963360736794
aF20.93644971153897
aF20.587614567142253
aF18.62250143846678
aF20.85791303082206
aF21.055369964912387
aF21.256601185556487
aF20.975940256932013
aF21.216047814079424
aF21.420376929353292
aF21.338174807296596
aF22.18972008342186
aF22.413333021608196
aF22.368250612072163
aF22.18972008342186
aF23.652788093336024
aF23.7032028912729
aF24.59437247934155
aF24.166796330696304
aF24.2194285435518
aF24.11439237615458
aF22.323349196930486
aF28.64946635903006
aF29.175608583820704
aF28.575848306470597
aF29.4850298385104
aF25.852210647297913
aF30.791253603630047
aF28.28512100306336
aF30.453966386573036
aF30.042608187298807
aF39.5523460362579
aF34.73436705484322
aF32.98303850119052
aF33.58062299117415
aF32.50106089601583
aF32.78854216667119
aF33.58062299117415
aF34.84319640460254
aF30.205810677644397
aF32.78854216667119
aF31.75852658585873
aF30.962714484429938
aF32.218576929896436
aF32.40635079011877
aF36.08693564067917
aF38.99754386604742
aF34.62621542416389
aF32.885502756653885
aF30.962714484429938
aF31.049163008189556
aF31.399838944487804
aF32.885502756653885
aF33.88760971661696
aF28.64946635903006
aF30.706233315551316
aF31.13609561556665
aF31.75852658585873
aF32.312191062622546
aF37.04872942621957
aF37.04872942621957
aF33.08115453309044
aF30.791253603630047
aF30.453966386573036
aF30.962714484429938
aF28.429741417657475
aF30.288078665750092
aF32.312191062622546
aF31.48874912363562
aF32.032966589815295
aF36.204420054980474
aF35.06291390310869
aF37.42275298858945
aF41.46975950501859
aF34.62621542416389
aF85.43617416850795
aF170.65785192960487
aF37.172570459775194
aF38.861266771874554
aF181.81859798965397
aF91.7823504748951
aF181.81859798965397
aF187.96489733552386
aF83.51141002496178
aF176.0615291085372
aF106.76167106359611
aF92.54616206571707
aF89.5647355585695
aF86.09763122117997
aF84.14328907505546
aF74.55357741432897
aF73.08370727296148
aF73.08370727296148
aF99.14696033294224
aF173.31758193118839
aF170.65785192960487
aF66.92608970917819
aF53.42278861433988
aF53.680665908489715
aF28.872614130722635
aF29.563413365886547
aF30.791253603630047
aF29.099265340812156
aF35.06291390310869
aF35.06291390310869
aF35.62452508876756
aF31.57816423957502
aF36.08693564067917
aF36.56150834616634
aF35.285420016778595
aF36.441698813357824
aF37.29724218516278
aF33.99118972893073
aF37.04872942621957
aF37.04872942621957
aF37.67632594262979
aF37.54911136952685
aF37.42275298858945
aF37.80440543969411
aF38.06319473062353
aF31.311429437025645
aF32.12550366358566
aF22.323349196930486
aF22.145531854558953
aF22.323349196930486
aF22.549677226786407
aF19.74680181744701
aF22.413333021608196
aF21.97052494489924
aF22.014016845235883
aF22.323349196930486
aF21.84107426375334
aF22.368250612072163
aF23.753833061775843
aF24.272290509328982
aF21.175648883509826
aF24.272290509328982
aF23.80467998791002
aF24.272290509328982
aF23.80467998791002
aF24.37870974360953
aF24.272290509328982
aF24.325383735712993
aF24.272290509328982
aF24.325383735712993
aF21.175648883509826
aF24.648885681380325
aF25.03735110216146
aF25.380200454807294
aF23.958535309533108
aF24.59437247934155
aF23.40389709986203
aF24.59437247934155
aF24.272290509328982
aF23.552599141484013
aF23.753833061775843
aF24.2194285435518
aF24.325383735712993
aF28.357246822499594
aF28.28512100306336
aF28.575848306470597
aF28.79784630141215
aF30.12398838888775
aF29.563413365886547
aF29.881159791016643
aF29.175608583820704
aF29.175608583820704
aF30.12398838888775
aF30.12398838888775
aF29.881159791016643
aF28.79784630141215
aF29.801084564518085
aF35.62452508876756
aF30.042608187298807
aF33.99118972893073
aF34.411920154373824
aF35.97021124090935
aF36.56150834616634
aF44.27663881231197
aF40.860276686522376
aF38.06319473062353
aF35.97021124090935
aF34.095404882703036
aF36.803506444853056
aF34.518735201618064
aF33.17985604642032
aF32.98303850119052
aF32.885502756653885
aF32.98303850119052
aF32.032966589815295
aF33.17985604642032
aF33.58062299117415
aF33.58062299117415
aF32.312191062622546
aF32.78854216667119
aF32.50106089601583
aF32.218576929896436
aF32.50106089601583
aF32.50106089601583
aF33.17985604642032
aF34.73436705484322
aF36.441698813357824
aF33.88760971661696
aF35.97021124090935
aF163.14689951821794
aF163.14689951821794
aF187.96489733552386
aF77.13930562222365
aF37.04872942621957
aF37.80440543969411
aF32.78854216667119
aF32.40635079011877
aF32.312191062622546
aF32.50106089601583
aF32.40635079011877
aF33.17985604642032
aF32.885502756653885
aF32.12550366358566
aF32.12550366358566
aF32.59632622003051
aF32.69215165879007
aF33.27914829742079
aF34.411920154373824
aF35.51076817356807
aF39.5523460362579
aF55.55795359396014
aF106.76167106359611
aF187.96489733552386
aF114.45314912168755
aF34.62621542416389
aF34.518735201618064
aF34.30576412650896
aF32.69215165879007
aF32.78854216667119
aF32.59632622003051
aF33.68233203175638
aF34.411920154373824
aF33.08115453309044
aF33.88760971661696
aF35.62452508876756
aF37.93335871165452
aF181.81859798965397
aF39.69352192790213
aF37.67632594262979
aF35.97021124090935
aF35.06291390310869
aF34.411920154373824
aF34.518735201618064
aF84.14328907505546
aF67.33130060134316
aF45.17597240209357
aF35.739013175062894
aF30.876746012090063
aF38.19392259197235
aF38.72593880282878
aF42.909883949752206
aF168.07852051581233
aF37.04872942621957
aF40.860276686522376
aF38.99754386604742
aF37.93335871165452
aF34.20026103782835
aF130.58020093091415
aF84.14328907505546
aF69.86949277347333
aF41.16276211895311
aF36.204420054980474
aF36.441698813357824
aF37.54911136952685
aF37.42275298858945
aF35.97021124090935
aF38.19392259197235
aF38.06319473062353
aa(lp2
(I90
I10
tp3
a(I99
I10
tp4
a(I102
I10
tp5
a(I105
I10
tp6
a(I109
I10
tp7
a(I112
I10
tp8
a(I115
I10
tp9
a(I118
I10
tp10
a(I120
I15
tp11
a(I117
I15
tp12
a(I114
I15
tp13
a(I111
I15
tp14
a(I108
I15
tp15
a(I105
I15
tp16
a(I101
I15
tp17
a(I97
I15
tp18
a(I94
I15
tp19
a(I91
I15
tp20
a(I87
I15
tp21
a(I84
I15
tp22
a(I81
I15
tp23
a(I77
I15
tp24
a(I74
I15
tp25
a(I71
I15
tp26
a(I67
I15
tp27
a(I63
I15
tp28
a(I60
I20
tp29
a(I63
I20
tp30
a(I66
I20
tp31
a(I69
I20
tp32
a(I73
I20
tp33
a(I76
I20
tp34
a(I80
I20
tp35
a(I83
I20
tp36
a(I86
I20
tp37
a(I90
I20
tp38
a(I93
I20
tp39
a(I97
I20
tp40
a(I100
I20
tp41
a(I104
I20
tp42
a(I108
I20
tp43
a(I111
I20
tp44
a(I115
I20
tp45
a(I118
I20
tp46
a(I119
I25
tp47
a(I116
I25
tp48
a(I112
I25
tp49
a(I108
I25
tp50
a(I104
I25
tp51
a(I100
I25
tp52
a(I96
I25
tp53
a(I92
I25
tp54
a(I88
I25
tp55
a(I84
I25
tp56
a(I81
I25
tp57
a(I77
I25
tp58
a(I73
I25
tp59
a(I69
I25
tp60
a(I65
I25
tp61
a(I61
I25
tp62
a(I61
I30
tp63
a(I65
I30
tp64
a(I69
I30
tp65
a(I73
I30
tp66
a(I77
I30
tp67
a(I81
I30
tp68
a(I86
I30
tp69
a(I90
I30
tp70
a(I94
I30
tp71
a(I98
I30
tp72
a(I103
I30
tp73
a(I107
I30
tp74
a(I111
I30
tp75
a(I116
I30
tp76
a(I120
I35
tp77
a(I116
I35
tp78
a(I111
I35
tp79
a(I107
I35
tp80
a(I102
I35
tp81
a(I97
I35
tp82
a(I93
I35
tp83
a(I88
I35
tp84
a(I83
I35
tp85
a(I79
I35
tp86
a(I74
I35
tp87
a(I69
I35
tp88
a(I65
I35
tp89
a(I60
I40
tp90
a(I64
I40
tp91
a(I69
I40
tp92
a(I73
I40
tp93
a(I78
I40
tp94
a(I83
I40
tp95
a(I87
I40
tp96
a(I92
I40
tp97
a(I97
I40
tp98
a(I102
I40
tp99
a(I107
I40
tp100
a(I112
I40
tp101
a(I117
I40
tp102
a(I119
I45
tp103
a(I114
I45
tp104
a(I109
I45
tp105
a(I104
I45
tp106
a(I99
I45
tp107
a(I94
I45
tp108
a(I89
I45
tp109
a(I83
I45
tp110
a(I78
I45
tp111
a(I72
I45
tp112
a(I67
I45
tp113
a(I62
I45
tp114
a(I62
I50
tp115
a(I68
I50
tp116
a(I73
I50
tp117
a(I78
I50
tp118
a(I83
I50
tp119
a(I89
I50
tp120
a(I94
I50
tp121
a(I100
I50
tp122
a(I105
I50
tp123
a(I110
I50
tp124
a(I116
I50
tp125
a(I120
I55
tp126
a(I115
I55
tp127
a(I110
I55
tp128
a(I104
I55
tp129
a(I99
I55
tp130
a(I93
I55
tp131
a(I88
I55
tp132
a(I82
I55
tp133
a(I76
I55
tp134
a(I71
I55
tp135
a(I65
I55
tp136
a(I60
I60
tp137
a(I65
I60
tp138
a(I71
I60
tp139
a(I76
I60
tp140
a(I82
I60
tp141
a(I88
I60
tp142
a(I93
I60
tp143
a(I99
I60
tp144
a(I105
I60
tp145
a(I110
I60
tp146
a(I116
I60
tp147
a(I119
I65
tp148
a(I114
I65
tp149
a(I108
I65
tp150
a(I102
I65
tp151
a(I96
I65
tp152
a(I90
I65
tp153
a(I84
I65
tp154
a(I78
I65
tp155
a(I72
I65
tp156
a(I66
I65
tp157
a(I60
I70
tp158
a(I65
I70
tp159
a(I71
I70
tp160
a(I77
I70
tp161
a(I84
I70
tp162
a(I90
I70
tp163
a(I96
I70
tp164
a(I102
I70
tp165
a(I108
I70
tp166
a(I114
I70
tp167
a(I120
I75
tp168
a(I114
I75
tp169
a(I108
I75
tp170
a(I102
I75
tp171
a(I96
I75
tp172
a(I90
I75
tp173
a(I84
I75
tp174
a(I77
I75
tp175
a(I71
I75
tp176
a(I65
I75
tp177
a(I60
I80
tp178
a(I66
I80
tp179
a(I72
I80
tp180
a(I79
I80
tp181
a(I85
I80
tp182
a(I91
I80
tp183
a(I98
I80
tp184
a(I104
I80
tp185
a(I111
I80
tp186
a(I117
I80
tp187
a(I117
I85
tp188
a(I111
I85
tp189
a(I104
I85
tp190
a(I97
I85
tp191
a(I91
I85
tp192
a(I84
I85
tp193
a(I77
I85
tp194
a(I71
I85
tp195
a(I64
I85
tp196
a(I62
I90
tp197
a(I68
I90
tp198
a(I75
I90
tp199
a(I82
I90
tp200
a(I89
I90
tp201
a(I95
I90
tp202
a(I102
I90
tp203
a(I109
I90
tp204
a(I116
I90
tp205
a(I119
I95
tp206
a(I112
I95
tp207
a(I105
I95
tp208
a(I98
I95
tp209
a(I91
I95
tp210
a(I84
I95
tp211
a(I77
I95
tp212
a(I70
I95
tp213
a(I63
I95
tp214
a(I62
I100
tp215
a(I69
I100
tp216
a(I76
I100
tp217
a(I83
I100
tp218
a(I90
I100
tp219
a(I97
I100
tp220
a(I104
I100
tp221
a(I111
I100
tp222
a(I119
I100
tp223
a(I116
I105
tp224
a(I108
I105
tp225
a(I101
I105
tp226
a(I94
I105
tp227
a(I87
I105
tp228
a(I80
I105
tp229
a(I72
I105
tp230
a(I66
I105
tp231
a(I60
I110
tp232
a(I67
I110
tp233
a(I74
I110
tp234
a(I82
I110
tp235
a(I89
I110
tp236
a(I96
I110
tp237
a(I104
I110
tp238
a(I111
I110
tp239
a(I119
I110
tp240
a(I116
I115
tp241
a(I108
I115
tp242
a(I100
I115
tp243
a(I93
I115
tp244
a(I85
I115
tp245
a(I78
I115
tp246
a(I70
I115
tp247
a(I63
I115
tp248
a(I63
I120
tp249
a(I71
I120
tp250
a(I79
I120
tp251
a(I86
I120
tp252
a(I94
I120
tp253
a(I101
I120
tp254
a(I109
I120
tp255
a(I116
I120
tp256
a(I117
I125
tp257
a(I110
I125
tp258
a(I102
I125
tp259
a(I94
I125
tp260
a(I87
I125
tp261
a(I95
I130
tp262
a(I103
I130
tp263
a(I112
I130
tp264
a(I94
I120
tp265
a(I102
I120
tp266
a(I110
I120
tp267
a(I118
I115
tp268
a(I110
I115
tp269
a(I103
I115
tp270
a(I95
I115
tp271
a(I87
I115
tp272
a(I67
I110
tp273
a(I75
I110
tp274
a(I82
I110
tp275
a(I90
I110
tp276
a(I98
I110
tp277
a(I105
I110
tp278
a(I113
I110
tp279
a(I120
I105
tp280
a(I113
I105
tp281
a(I105
I105
tp282
a(I97
I105
tp283
a(I89
I105
tp284
a(I81
I105
tp285
a(I73
I105
tp286
a(I65
I105
tp287
a(I61
I100
tp288
a(I69
I100
tp289
a(I77
I100
tp290
a(I86
I100
tp291
a(I94
I100
tp292
a(I103
I100
tp293
a(I111
I100
tp294
a(I120
I95
tp295
a(I112
I95
tp296
a(I104
I95
tp297
a(I94
I95
tp298
a(I84
I95
tp299
a(I74
I95
tp300
a(I65
I95
tp301
a(I62
I90
tp302
a(I71
I90
tp303
a(I66
I0
tp304
a(I72
I0
tp305
a(I76
I0
tp306
a(I80
I0
tp307
a(I84
I0
tp308
a(I87
I0
tp309
a(I91
I0
tp310
a(I95
I0
tp311
a(I98
I0
tp312
a(I102
I0
tp313
a(I106
I0
tp314
a(I110
I0
tp315
a(I114
I0
tp316
a(I118
I0
tp317
a(I120
I5
tp318
a(I116
I5
tp319
a(I112
I5
tp320
a(I108
I5
tp321
a(I104
I5
tp322
a(I100
I5
tp323
a(I96
I5
tp324
a(I92
I5
tp325
a(I88
I5
tp326
a(I83
I5
tp327
a(I79
I5
tp328
a(I73
I5
tp329
a(I69
I5
tp330
a(I65
I5
tp331
a(I61
I5
tp332
a(I62
I10
tp333
a(I66
I10
tp334
a(I71
I10
tp335
a(I75
I10
tp336
a(I79
I10
tp337
a(I83
I10
tp338
a(I87
I10
tp339
a(I91
I10
tp340
a(I95
I10
tp341
a(I100
I10
tp342
a(I104
I10
tp343
a(I108
I10
tp344
a(I112
I10
tp345
a(I116
I10
tp346
a(I120
I15
tp347
a(I116
I15
tp348
a(I112
I15
tp349
a(I107
I15
tp350
a(I103
I15
tp351
a(I98
I15
tp352
a(I94
I15
tp353
a(I89
I15
tp354
a(I85
I15
tp355
a(I80
I15
tp356
a(I76
I15
tp357
a(I71
I15
tp358
a(I67
I15
tp359
a(I62
I15
tp360
a(I61
I20
tp361
a(I66
I20
tp362
a(I70
I20
tp363
a(I74
I20
tp364
a(I79
I20
tp365
a(I84
I20
tp366
a(I88
I20
tp367
a(I92
I20
tp368
a(I97
I20
tp369
a(I102
I20
tp370
a(I106
I20
tp371
a(I111
I20
tp372
a(I115
I20
tp373
a(I120
I25
tp374
a(I116
I25
tp375
a(I111
I25
tp376
a(I106
I25
tp377
a(I102
I25
tp378
a(I97
I25
tp379
a(I92
I25
tp380
a(I87
I25
tp381
a(I83
I25
tp382
a(I78
I25
tp383
a(I73
I25
tp384
a(I68
I25
tp385
a(I63
I25
tp386
a(I61
I30
tp387
a(I67
I30
tp388
a(I74
I30
tp389
a(I81
I30
tp390
a(I86
I30
tp391
a(I93
I30
tp392
a(I99
I30
tp393
a(I105
I30
tp394
a(I110
I30
tp395
a(I116
I30
tp396
a(I119
I35
tp397
a(I114
I35
tp398
a(I108
I35
tp399
a(I103
I35
tp400
a(I97
I35
tp401
a(I90
I35
tp402
a(I81
I35
tp403
a(I74
I35
tp404
a(I66
I35
tp405
a(I71
I40
tp406
a(I79
I40
tp407
a(I85
I40
tp408
a(I117
I45
tp409
a(I108
I45
tp410
a(I101
I45
tp411
a(I96
I45
tp412
a(I89
I45
tp413
a(I84
I45
tp414
a(I76
I45
tp415
a(I69
I45
tp416
a(I62
I45
tp417
a(I62
I50
tp418
a(I69
I50
tp419
a(I76
I50
tp420
a(I82
I50
tp421
a(I88
I50
tp422
a(I94
I50
tp423
a(I100
I50
tp424
a(I107
I50
tp425
a(I112
I50
tp426
a(I119
I50
tp427
a(I117
I55
tp428
a(I112
I55
tp429
a(I106
I55
tp430
a(I99
I55
tp431
a(I93
I55
tp432
a(I88
I55
tp433
a(I82
I55
tp434
a(I75
I55
tp435
a(I70
I55
tp436
a(I65
I55
tp437
a(I60
I60
tp438
a(I66
I60
tp439
a(I72
I60
tp440
a(I77
I60
tp441
a(I83
I60
tp442
a(I89
I60
tp443
a(I95
I60
tp444
a(I101
I60
tp445
a(I107
I60
tp446
a(I112
I60
tp447
a(I118
I60
tp448
a(I117
I65
tp449
a(I111
I65
tp450
a(I104
I65
tp451
a(I96
I65
tp452
a(I89
I65
tp453
a(I83
I65
tp454
a(I52
I0
tp455
a(I55
I0
tp456
a(I58
I0
tp457
a(I61
I0
tp458
a(I64
I0
tp459
a(I67
I0
tp460
a(I69
I0
tp461
a(I72
I0
tp462
a(I75
I0
tp463
a(I77
I0
tp464
a(I80
I0
tp465
a(I83
I0
tp466
a(I86
I0
tp467
a(I89
I0
tp468
a(I91
I0
tp469
a(I94
I0
tp470
a(I97
I0
tp471
a(I99
I0
tp472
a(I102
I0
tp473
a(I105
I0
tp474
a(I108
I0
tp475
a(I110
I0
tp476
a(I113
I0
tp477
a(I116
I0
tp478
a(I119
I0
tp479
a(I119
I5
tp480
a(I116
I5
tp481
a(I113
I5
tp482
a(I110
I5
tp483
a(I107
I5
tp484
a(I104
I5
tp485
a(I101
I5
tp486
a(I98
I5
tp487
a(I95
I5
tp488
a(I93
I5
tp489
a(I90
I5
tp490
a(I87
I5
tp491
a(I84
I5
tp492
a(I81
I5
tp493
a(I78
I5
tp494
a(I75
I5
tp495
a(I73
I5
tp496
a(I69
I5
tp497
a(I67
I5
tp498
a(I64
I5
tp499
a(I61
I5
tp500
a(I61
I10
tp501
a(I64
I10
tp502
a(I66
I10
tp503
a(I69
I10
tp504
a(I72
I10
tp505
a(I75
I10
tp506
a(I78
I10
tp507
a(I81
I10
tp508
a(I84
I10
tp509
a(I86
I10
tp510
a(I89
I10
tp511
a(I92
I10
tp512
a(I96
I10
tp513
a(I98
I10
tp514
a(I102
I10
tp515
a(I105
I10
tp516
a(I108
I10
tp517
a(I111
I10
tp518
a(I114
I10
tp519
a(I116
I10
tp520
a(I119
I10
tp521
a(I119
I15
tp522
a(I116
I15
tp523
a(I113
I15
tp524
a(I110
I15
tp525
a(I107
I15
tp526
a(I104
I15
tp527
a(I100
I15
tp528
a(I97
I15
tp529
a(I94
I15
tp530
a(I91
I15
tp531
a(I88
I15
tp532
a(I85
I15
tp533
a(I82
I15
tp534
a(I79
I15
tp535
a(I76
I15
tp536
a(I73
I15
tp537
a(I69
I15
tp538
a(I67
I15
tp539
a(I64
I15
tp540
a(I61
I15
tp541
a(I62
I20
tp542
a(I64
I20
tp543
a(I67
I20
tp544
a(I70
I20
tp545
a(I73
I20
tp546
a(I76
I20
tp547
a(I78
I20
tp548
a(I81
I20
tp549
a(I84
I20
tp550
a(I87
I20
tp551
a(I90
I20
tp552
a(I93
I20
tp553
a(I96
I20
tp554
a(I98
I20
tp555
a(I101
I20
tp556
a(I104
I20
tp557
a(I107
I20
tp558
a(I110
I20
tp559
a(I113
I20
tp560
a(I116
I20
tp561
a(I119
I20
tp562
a(I120
I25
tp563
a(I117
I25
tp564
a(I113
I25
tp565
a(I110
I25
tp566
a(I107
I25
tp567
a(I104
I25
tp568
a(I101
I25
tp569
a(I98
I25
tp570
a(I95
I25
tp571
a(I92
I25
tp572
a(I89
I25
tp573
a(I86
I25
tp574
a(I83
I25
tp575
a(I80
I25
tp576
a(I77
I25
tp577
a(I74
I25
tp578
a(I71
I25
tp579
a(I68
I25
tp580
a(I65
I25
tp581
a(I61
I25
tp582
a(I61
I30
tp583
a(I65
I30
tp584
a(I68
I30
tp585
a(I71
I30
tp586
a(I74
I30
tp587
a(I77
I30
tp588
a(I80
I30
tp589
a(I84
I30
tp590
a(I87
I30
tp591
a(I90
I30
tp592
a(I93
I30
tp593
a(I96
I30
tp594
a(I99
I30
tp595
a(I102
I30
tp596
a(I105
I30
tp597
a(I108
I30
tp598
a(I111
I30
tp599
a(I114
I30
tp600
a(I117
I30
tp601
a(I120
I35
tp602
a(I118
I35
tp603
a(I114
I35
tp604
a(I110
I35
tp605
a(I6
I0
tp606
a(I87
I45
tp607
a(I91
I45
tp608
a(I94
I45
tp609
a(I96
I45
tp610
a(I99
I45
tp611
a(I101
I45
tp612
a(I104
I45
tp613
a(I107
I45
tp614
a(I110
I45
tp615
a(I112
I45
tp616
a(I115
I45
tp617
a(I119
I45
tp618
a(I118
I50
tp619
a(I115
I50
tp620
a(I112
I50
tp621
a(I109
I50
tp622
a(I106
I50
tp623
a(I102
I50
tp624
a(I98
I50
tp625
a(I94
I50
tp626
a(I89
I50
tp627
a(I85
I50
tp628
a(I81
I50
tp629
a(I76
I50
tp630
a(I72
I50
tp631
a(I68
I50
tp632
a(I63
I50
tp633
a(I60
I55
tp634
a(I65
I55
tp635
a(I69
I55
tp636
a(I74
I55
tp637
a(I78
I55
tp638
a(I83
I55
tp639
a(I87
I55
tp640
a(I91
I55
tp641
a(I98
I55
tp642
a(I106
I55
tp643
a(I112
I55
tp644
a(I118
I55
tp645
a(I115
I60
tp646
a(I88
I60
tp647
a(I76
I60
tp648
a(I68
I65
tp649
a(I82
I65
tp650
a(I88
I65
tp651
a(I114
I65
tp652
a(I104
I70
tp653
a(I97
I70
tp654
a(I90
I70
tp655
a(I83
I70
tp656
a(I76
I70
tp657
a(I70
I70
tp658
a(I63
I70
tp659
a(I63
I75
tp660
a(I70
I75
tp661
a(I77
I75
tp662
a(I84
I75
tp663
a(I91
I75
tp664
a(I98
I75
tp665
a(I105
I75
tp666
a(I113
I75
tp667
a(I120
I80
tp668
a(I113
I80
tp669
a(I105
I80
tp670
a(I98
I80
tp671
a(I90
I80
tp672
a(I83
I80
tp673
a(I75
I80
tp674
a(I68
I80
tp675
a(I60
I85
tp676
a(I67
I85
tp677
a(I75
I85
tp678
a(I83
I85
tp679
a(I91
I85
tp680
a(I100
I85
tp681
a(I108
I85
tp682
a(I116
I85
tp683
a(I116
I90
tp684
a(I107
I90
tp685
a(I99
I90
tp686
a(I90
I90
tp687
a(I81
I90
tp688
a(I73
I90
tp689
a(I64
I90
tp690
a(I64
I95
tp691
a(I73
I95
tp692
a(I83
I95
tp693
a(I92
I95
tp694
a(I101
I95
tp695
a(I110
I95
tp696
a(I120
I100
tp697
a(I111
I100
tp698
a(I101
I100
tp699
a(I92
I100
tp700
a(I82
I100
tp701
a(I72
I100
tp702
a(I62
I100
tp703
a(I68
I105
tp704
a(I78
I105
tp705
a(I88
I105
tp706
a(I98
I105
tp707
a(I106
I110
tp708
a(I65
I115
tp709
a(I116
I115
tp710
a(I111
I120
tp711
a(I86
I120
tp712
a(I62
I120
tp713
a(I88
I125
tp714
a(I99
I125
tp715
a(I110
I125
tp716
a(I98
I130
tp717
a(I87
I130
tp718
a(I62
I135
tp719
a(I62
I130
tp720
a(I115
I125
tp721
a(I98
I120
tp722
a(I89
I120
tp723
a(I87
I120
tp724
a(I86
I120
tp725
a(I85
I120
tp726
a(I85
I120
tp727
a(I84
I120
tp728
a(I83
I120
tp729
a(I83
I120
tp730
a(I82
I120
tp731
a(I81
I120
tp732
a(I89
I115
tp733
a(I89
I115
tp734
a(I90
I115
tp735
a(I91
I115
tp736
a(I91
I115
tp737
a(I92
I115
tp738
a(I92
I115
tp739
a(I93
I115
tp740
a(I94
I115
tp741
a(I95
I115
tp742
a(I95
I115
tp743
a(I96
I115
tp744
a(I97
I115
tp745
a(I97
I115
tp746
a(I98
I115
tp747
a(I98
I115
tp748
a(I99
I115
tp749
a(I100
I115
tp750
a(I101
I115
tp751
a(I101
I115
tp752
a(I102
I115
tp753
a(I102
I115
tp754
a(I103
I115
tp755
a(I104
I115
tp756
a(I104
I115
tp757
a(I85
I45
tp758
a(I100
I60
tp759
a(I76
I65
tp760
a(I74
I65
tp761
a(I72
I65
tp762
a(I71
I65
tp763
a(I69
I65
tp764
a(I68
I65
tp765
a(I66
I65
tp766
a(I65
I65
tp767
a(I63
I65
tp768
a(I62
I65
tp769
a(I60
I70
tp770
a(I61
I70
tp771
a(I62
I70
tp772
a(I64
I70
tp773
a(I65
I70
tp774
a(I67
I70
tp775
a(I69
I70
tp776
a(I70
I70
tp777
a(I72
I70
tp778
a(I74
I70
tp779
a(I76
I70
tp780
a(I78
I70
tp781
a(I80
I70
tp782
a(I82
I70
tp783
a(I84
I70
tp784
a(I87
I70
tp785
a(I90
I70
tp786
a(I93
I70
tp787
a(I96
I70
tp788
a(I99
I70
tp789
a(I102
I70
tp790
a(I105
I70
tp791
a(I108
I70
tp792
a(I112
I70
tp793
a(I115
I70
tp794
a(I119
I70
tp795
a(I115
I75
tp796
a(I112
I75
tp797
a(I108
I75
tp798
a(I105
I75
tp799
a(I102
I75
tp800
a(I98
I75
tp801
a(I95
I75
tp802
a(I91
I75
tp803
a(I88
I75
tp804
a(I77
I75
tp805
a(I72
I75
tp806
a(I69
I75
tp807
a(I65
I75
tp808
a(I61
I75
tp809
a(I62
I80
tp810
a(I69
I80
tp811
a(I79
I80
tp812
a(I90
I80
tp813
a(I94
I80
tp814
a(I104
I80
tp815
a(I117
I80
tp816
a(I117
I85
tp817
a(I104
I85
tp818
a(I100
I85
tp819
a(I95
I85
tp820
a(I91
I85
tp821
a(I88
I85
tp822
a(I84
I85
tp823
a(I80
I85
tp824
a(I76
I85
tp825
a(I72
I85
tp826
a(I68
I85
tp827
a(I64
I85
tp828
a(I61
I85
tp829
a(I63
I90
tp830
a(I67
I90
tp831
a(I71
I90
tp832
a(I75
I90
tp833
a(I80
I90
tp834
a(I84
I90
tp835
a(I89
I90
tp836
a(I93
I90
tp837
a(I98
I90
tp838
a(I102
I90
tp839
a(I106
I90
tp840
a(I111
I90
tp841
a(I115
I90
tp842
a(I120
I95
tp843
a(I114
I95
tp844
a(I110
I95
tp845
a(I105
I95
tp846
a(I100
I95
tp847
a(I85
I95
tp848
a(I77
I95
tp849
a(I71
I95
tp850
a(I66
I95
tp851
a(I61
I100
tp852
a(I66
I100
tp853
a(I71
I100
tp854
a(I76
I100
tp855
a(I81
I100
tp856
a(I86
I100
tp857
a(I91
I100
tp858
a(I96
I100
tp859
a(I101
I100
tp860
a(I106
I100
tp861
a(I111
I100
tp862
a(I116
I100
tp863
a(I119
I105
tp864
a(I114
I105
tp865
a(I108
I105
tp866
a(I103
I105
tp867
a(I98
I105
tp868
a(I92
I105
tp869
a(I87
I105
tp870
a(I81
I105
tp871
a(I75
I105
tp872
a(I60
I110
tp873
a(I67
I110
tp874
a(I82
I110
tp875
a(I92
I110
tp876
a(I101
I110
tp877
a(I109
I110
tp878
a(I108
I115
tp879
a(I103
I115
tp880
a(I97
I115
tp881
a(I92
I115
tp882
a(I86
I115
tp883
a(I80
I115
tp884
a(I65
I115
tp885
a(I66
I120
tp886
a(I73
I120
tp887
a(I79
I120
tp888
a(I86
I120
tp889
a(I93
I120
tp890
a(I100
I120
tp891
a(I106
I120
tp892
a(I112
I120
tp893
a(I106
I115
tp894
a(I100
I115
tp895
a(I94
I115
tp896
a(I88
I115
tp897
a(I82
I115
tp898
a(I75
I115
tp899
a(I61
I110
tp900
a(I67
I110
tp901
a(I73
I110
tp902
a(I80
I110
tp903
a(I86
I110
tp904
a(I93
I110
tp905
a(I97
I110
tp906
a(I98
I110
tp907
a(I98
I110
tp908
a(I99
I110
tp909
a(I99
I110
tp910
aa.